
RTOS4.elf:     file format elf32-littlearm

Sections:
Idx Name          Size      VMA       LMA       File off  Algn
  0 .text         00003b40  00080000  00080000  00010000  2**4
                  CONTENTS, ALLOC, LOAD, READONLY, CODE
  1 .relocate     00000974  20070000  00083b40  00020000  2**3
                  CONTENTS, ALLOC, LOAD, CODE
  2 .bss          0000ba8c  20070974  000844b4  00020974  2**2
                  ALLOC
  3 .stack        00002000  2007c400  0008ff40  00020974  2**0
                  ALLOC
  4 .ARM.attributes 00000029  00000000  00000000  00020974  2**0
                  CONTENTS, READONLY
  5 .comment      00000059  00000000  00000000  0002099d  2**0
                  CONTENTS, READONLY
  6 .debug_info   0001c940  00000000  00000000  000209f6  2**0
                  CONTENTS, READONLY, DEBUGGING
  7 .debug_abbrev 000040bc  00000000  00000000  0003d336  2**0
                  CONTENTS, READONLY, DEBUGGING
  8 .debug_loc    00008363  00000000  00000000  000413f2  2**0
                  CONTENTS, READONLY, DEBUGGING
  9 .debug_aranges 00000da0  00000000  00000000  00049755  2**0
                  CONTENTS, READONLY, DEBUGGING
 10 .debug_ranges 00000ef8  00000000  00000000  0004a4f5  2**0
                  CONTENTS, READONLY, DEBUGGING
 11 .debug_macro  00009cf5  00000000  00000000  0004b3ed  2**0
                  CONTENTS, READONLY, DEBUGGING
 12 .debug_line   00014b49  00000000  00000000  000550e2  2**0
                  CONTENTS, READONLY, DEBUGGING
 13 .debug_str    0006d195  00000000  00000000  00069c2b  2**0
                  CONTENTS, READONLY, DEBUGGING
 14 .debug_frame  00002788  00000000  00000000  000d6dc0  2**2
                  CONTENTS, READONLY, DEBUGGING

Disassembly of section .text:

00080000 <exception_table>:
   80000:	00 e4 07 20 05 26 08 00 01 26 08 00 01 26 08 00     ... .&...&...&..
   80010:	01 26 08 00 01 26 08 00 01 26 08 00 00 00 00 00     .&...&...&......
	...
   8002c:	a1 05 08 00 01 26 08 00 00 00 00 00 41 06 08 00     .....&......A...
   8003c:	89 06 08 00 01 26 08 00 01 26 08 00 01 26 08 00     .....&...&...&..
   8004c:	01 26 08 00 01 26 08 00 01 26 08 00 01 26 08 00     .&...&...&...&..
   8005c:	01 26 08 00 01 26 08 00 01 26 08 00 00 00 00 00     .&...&...&......
   8006c:	a9 24 08 00 bd 24 08 00 d1 24 08 00 e5 24 08 00     .$...$...$...$..
	...
   80084:	01 26 08 00 01 26 08 00 01 26 08 00 01 26 08 00     .&...&...&...&..
   80094:	01 26 08 00 01 26 08 00 01 26 08 00 01 26 08 00     .&...&...&...&..
   800a4:	00 00 00 00 01 26 08 00 01 26 08 00 01 26 08 00     .....&...&...&..
   800b4:	01 26 08 00 01 26 08 00 01 26 08 00 01 26 08 00     .&...&...&...&..
   800c4:	01 26 08 00 01 26 08 00 01 26 08 00 01 26 08 00     .&...&...&...&..
   800d4:	01 26 08 00 01 26 08 00 01 26 08 00 01 26 08 00     .&...&...&...&..
   800e4:	01 26 08 00 01 26 08 00 01 26 08 00 01 26 08 00     .&...&...&...&..

000800f4 <__do_global_dtors_aux>:
   800f4:	b510      	push	{r4, lr}
   800f6:	4c05      	ldr	r4, [pc, #20]	; (8010c <__do_global_dtors_aux+0x18>)
   800f8:	7823      	ldrb	r3, [r4, #0]
   800fa:	b933      	cbnz	r3, 8010a <__do_global_dtors_aux+0x16>
   800fc:	4b04      	ldr	r3, [pc, #16]	; (80110 <__do_global_dtors_aux+0x1c>)
   800fe:	b113      	cbz	r3, 80106 <__do_global_dtors_aux+0x12>
   80100:	4804      	ldr	r0, [pc, #16]	; (80114 <__do_global_dtors_aux+0x20>)
   80102:	f3af 8000 	nop.w
   80106:	2301      	movs	r3, #1
   80108:	7023      	strb	r3, [r4, #0]
   8010a:	bd10      	pop	{r4, pc}
   8010c:	20070974 	.word	0x20070974
   80110:	00000000 	.word	0x00000000
   80114:	00083b40 	.word	0x00083b40

00080118 <frame_dummy>:
   80118:	4b0c      	ldr	r3, [pc, #48]	; (8014c <frame_dummy+0x34>)
   8011a:	b143      	cbz	r3, 8012e <frame_dummy+0x16>
   8011c:	480c      	ldr	r0, [pc, #48]	; (80150 <frame_dummy+0x38>)
   8011e:	b510      	push	{r4, lr}
   80120:	490c      	ldr	r1, [pc, #48]	; (80154 <frame_dummy+0x3c>)
   80122:	f3af 8000 	nop.w
   80126:	480c      	ldr	r0, [pc, #48]	; (80158 <frame_dummy+0x40>)
   80128:	6803      	ldr	r3, [r0, #0]
   8012a:	b923      	cbnz	r3, 80136 <frame_dummy+0x1e>
   8012c:	bd10      	pop	{r4, pc}
   8012e:	480a      	ldr	r0, [pc, #40]	; (80158 <frame_dummy+0x40>)
   80130:	6803      	ldr	r3, [r0, #0]
   80132:	b933      	cbnz	r3, 80142 <frame_dummy+0x2a>
   80134:	4770      	bx	lr
   80136:	4b09      	ldr	r3, [pc, #36]	; (8015c <frame_dummy+0x44>)
   80138:	2b00      	cmp	r3, #0
   8013a:	d0f7      	beq.n	8012c <frame_dummy+0x14>
   8013c:	e8bd 4010 	ldmia.w	sp!, {r4, lr}
   80140:	4718      	bx	r3
   80142:	4b06      	ldr	r3, [pc, #24]	; (8015c <frame_dummy+0x44>)
   80144:	2b00      	cmp	r3, #0
   80146:	d0f5      	beq.n	80134 <frame_dummy+0x1c>
   80148:	4718      	bx	r3
   8014a:	bf00      	nop
   8014c:	00000000 	.word	0x00000000
   80150:	00083b40 	.word	0x00083b40
   80154:	20070978 	.word	0x20070978
   80158:	00083b40 	.word	0x00083b40
   8015c:	00000000 	.word	0x00000000

00080160 <_read>:
   80160:	e92d 41f0 	stmdb	sp!, {r4, r5, r6, r7, r8, lr}
   80164:	b980      	cbnz	r0, 80188 <_read+0x28>
   80166:	460c      	mov	r4, r1
   80168:	4690      	mov	r8, r2
   8016a:	2a00      	cmp	r2, #0
   8016c:	dd0f      	ble.n	8018e <_read+0x2e>
   8016e:	188f      	adds	r7, r1, r2
   80170:	4e08      	ldr	r6, [pc, #32]	; (80194 <_read+0x34>)
   80172:	4d09      	ldr	r5, [pc, #36]	; (80198 <_read+0x38>)
   80174:	6830      	ldr	r0, [r6, #0]
   80176:	4621      	mov	r1, r4
   80178:	682b      	ldr	r3, [r5, #0]
   8017a:	4798      	blx	r3
   8017c:	3401      	adds	r4, #1
   8017e:	42bc      	cmp	r4, r7
   80180:	d1f8      	bne.n	80174 <_read+0x14>
   80182:	4640      	mov	r0, r8
   80184:	e8bd 81f0 	ldmia.w	sp!, {r4, r5, r6, r7, r8, pc}
   80188:	f04f 38ff 	mov.w	r8, #4294967295
   8018c:	e7f9      	b.n	80182 <_read+0x22>
   8018e:	4680      	mov	r8, r0
   80190:	e7f7      	b.n	80182 <_read+0x22>
   80192:	bf00      	nop
   80194:	2007c390 	.word	0x2007c390
   80198:	2007c388 	.word	0x2007c388

0008019c <_write>:
   8019c:	3801      	subs	r0, #1
   8019e:	2802      	cmp	r0, #2
   801a0:	d815      	bhi.n	801ce <_write+0x32>
   801a2:	e92d 41f0 	stmdb	sp!, {r4, r5, r6, r7, r8, lr}
   801a6:	460e      	mov	r6, r1
   801a8:	4614      	mov	r4, r2
   801aa:	b19a      	cbz	r2, 801d4 <_write+0x38>
   801ac:	460d      	mov	r5, r1
   801ae:	f8df 8038 	ldr.w	r8, [pc, #56]	; 801e8 <_write+0x4c>
   801b2:	4f0c      	ldr	r7, [pc, #48]	; (801e4 <_write+0x48>)
   801b4:	f8d8 0000 	ldr.w	r0, [r8]
   801b8:	f815 1b01 	ldrb.w	r1, [r5], #1
   801bc:	683b      	ldr	r3, [r7, #0]
   801be:	4798      	blx	r3
   801c0:	2800      	cmp	r0, #0
   801c2:	db0a      	blt.n	801da <_write+0x3e>
   801c4:	1ba8      	subs	r0, r5, r6
   801c6:	3c01      	subs	r4, #1
   801c8:	d1f4      	bne.n	801b4 <_write+0x18>
   801ca:	e8bd 81f0 	ldmia.w	sp!, {r4, r5, r6, r7, r8, pc}
   801ce:	f04f 30ff 	mov.w	r0, #4294967295
   801d2:	4770      	bx	lr
   801d4:	4610      	mov	r0, r2
   801d6:	e8bd 81f0 	ldmia.w	sp!, {r4, r5, r6, r7, r8, pc}
   801da:	f04f 30ff 	mov.w	r0, #4294967295
   801de:	e8bd 81f0 	ldmia.w	sp!, {r4, r5, r6, r7, r8, pc}
   801e2:	bf00      	nop
   801e4:	2007c38c 	.word	0x2007c38c
   801e8:	2007c390 	.word	0x2007c390

000801ec <usart_write>:
   801ec:	6943      	ldr	r3, [r0, #20]
   801ee:	f013 0f02 	tst.w	r3, #2
   801f2:	bf1d      	ittte	ne
   801f4:	f3c1 0108 	ubfxne	r1, r1, #0, #9
   801f8:	61c1      	strne	r1, [r0, #28]
   801fa:	2000      	movne	r0, #0
   801fc:	2001      	moveq	r0, #1
   801fe:	4770      	bx	lr

00080200 <usart_read>:
   80200:	6943      	ldr	r3, [r0, #20]
   80202:	f013 0f01 	tst.w	r3, #1
   80206:	d005      	beq.n	80214 <usart_read+0x14>
   80208:	6983      	ldr	r3, [r0, #24]
   8020a:	f3c3 0308 	ubfx	r3, r3, #0, #9
   8020e:	600b      	str	r3, [r1, #0]
   80210:	2000      	movs	r0, #0
   80212:	4770      	bx	lr
   80214:	2001      	movs	r0, #1
   80216:	4770      	bx	lr

00080218 <usart_serial_getchar>:
 * \param p_usart   Base address of the USART instance.
 * \param data   Data to read
 *
 */
static inline void usart_serial_getchar(usart_if p_usart, uint8_t *data)
{
   80218:	b5f0      	push	{r4, r5, r6, r7, lr}
   8021a:	b083      	sub	sp, #12
   8021c:	4604      	mov	r4, r0
   8021e:	460d      	mov	r5, r1
	uint32_t val = 0;
   80220:	2300      	movs	r3, #0
   80222:	9301      	str	r3, [sp, #4]

	/* Avoid Cppcheck Warning */
	UNUSED(val);

#ifdef UART
	if (UART == (Uart*)p_usart) {
   80224:	4b20      	ldr	r3, [pc, #128]	; (802a8 <usart_serial_getchar+0x90>)
   80226:	4298      	cmp	r0, r3
   80228:	d00d      	beq.n	80246 <usart_serial_getchar+0x2e>
		while (usart_read(p_usart, &val));
		*data = (uint8_t)(val & 0xFF);
	}
#else
# ifdef USART0
	if (USART0 == p_usart) {
   8022a:	4b20      	ldr	r3, [pc, #128]	; (802ac <usart_serial_getchar+0x94>)
   8022c:	4298      	cmp	r0, r3
   8022e:	d012      	beq.n	80256 <usart_serial_getchar+0x3e>
		while (usart_read(p_usart, &val));
		*data = (uint8_t)(val & 0xFF);
	}
# endif
# ifdef USART1
	if (USART1 == p_usart) {
   80230:	4b1f      	ldr	r3, [pc, #124]	; (802b0 <usart_serial_getchar+0x98>)
   80232:	4298      	cmp	r0, r3
   80234:	d019      	beq.n	8026a <usart_serial_getchar+0x52>
		while (usart_read(p_usart, &val));
		*data = (uint8_t)(val & 0xFF);
	}
# endif
# ifdef USART2
	if (USART2 == p_usart) {
   80236:	4b1f      	ldr	r3, [pc, #124]	; (802b4 <usart_serial_getchar+0x9c>)
   80238:	429c      	cmp	r4, r3
   8023a:	d020      	beq.n	8027e <usart_serial_getchar+0x66>
		while (usart_read(p_usart, &val));
		*data = (uint8_t)(val & 0xFF);
	}
# endif
# ifdef USART3
	if (USART3 == p_usart) {
   8023c:	4b1e      	ldr	r3, [pc, #120]	; (802b8 <usart_serial_getchar+0xa0>)
   8023e:	429c      	cmp	r4, r3
   80240:	d027      	beq.n	80292 <usart_serial_getchar+0x7a>
		*data = (uint8_t)(val & 0xFF);
	}
# endif
#endif /* ifdef USART */

}
   80242:	b003      	add	sp, #12
   80244:	bdf0      	pop	{r4, r5, r6, r7, pc}
		while (uart_read((Uart*)p_usart, data));
   80246:	461f      	mov	r7, r3
   80248:	4e1c      	ldr	r6, [pc, #112]	; (802bc <usart_serial_getchar+0xa4>)
   8024a:	4629      	mov	r1, r5
   8024c:	4638      	mov	r0, r7
   8024e:	47b0      	blx	r6
   80250:	2800      	cmp	r0, #0
   80252:	d1fa      	bne.n	8024a <usart_serial_getchar+0x32>
   80254:	e7ef      	b.n	80236 <usart_serial_getchar+0x1e>
		while (usart_read(p_usart, &val));
   80256:	461f      	mov	r7, r3
   80258:	4e19      	ldr	r6, [pc, #100]	; (802c0 <usart_serial_getchar+0xa8>)
   8025a:	a901      	add	r1, sp, #4
   8025c:	4638      	mov	r0, r7
   8025e:	47b0      	blx	r6
   80260:	2800      	cmp	r0, #0
   80262:	d1fa      	bne.n	8025a <usart_serial_getchar+0x42>
		*data = (uint8_t)(val & 0xFF);
   80264:	9b01      	ldr	r3, [sp, #4]
   80266:	702b      	strb	r3, [r5, #0]
   80268:	e7e8      	b.n	8023c <usart_serial_getchar+0x24>
		while (usart_read(p_usart, &val));
   8026a:	461e      	mov	r6, r3
   8026c:	4c14      	ldr	r4, [pc, #80]	; (802c0 <usart_serial_getchar+0xa8>)
   8026e:	a901      	add	r1, sp, #4
   80270:	4630      	mov	r0, r6
   80272:	47a0      	blx	r4
   80274:	2800      	cmp	r0, #0
   80276:	d1fa      	bne.n	8026e <usart_serial_getchar+0x56>
		*data = (uint8_t)(val & 0xFF);
   80278:	9b01      	ldr	r3, [sp, #4]
   8027a:	702b      	strb	r3, [r5, #0]
   8027c:	e7e1      	b.n	80242 <usart_serial_getchar+0x2a>
		while (usart_read(p_usart, &val));
   8027e:	461e      	mov	r6, r3
   80280:	4c0f      	ldr	r4, [pc, #60]	; (802c0 <usart_serial_getchar+0xa8>)
   80282:	a901      	add	r1, sp, #4
   80284:	4630      	mov	r0, r6
   80286:	47a0      	blx	r4
   80288:	2800      	cmp	r0, #0
   8028a:	d1fa      	bne.n	80282 <usart_serial_getchar+0x6a>
		*data = (uint8_t)(val & 0xFF);
   8028c:	9b01      	ldr	r3, [sp, #4]
   8028e:	702b      	strb	r3, [r5, #0]
   80290:	e7d7      	b.n	80242 <usart_serial_getchar+0x2a>
		while (usart_read(p_usart, &val));
   80292:	461e      	mov	r6, r3
   80294:	4c0a      	ldr	r4, [pc, #40]	; (802c0 <usart_serial_getchar+0xa8>)
   80296:	a901      	add	r1, sp, #4
   80298:	4630      	mov	r0, r6
   8029a:	47a0      	blx	r4
   8029c:	2800      	cmp	r0, #0
   8029e:	d1fa      	bne.n	80296 <usart_serial_getchar+0x7e>
		*data = (uint8_t)(val & 0xFF);
   802a0:	9b01      	ldr	r3, [sp, #4]
   802a2:	702b      	strb	r3, [r5, #0]
}
   802a4:	e7cd      	b.n	80242 <usart_serial_getchar+0x2a>
   802a6:	bf00      	nop
   802a8:	400e0800 	.word	0x400e0800
   802ac:	40098000 	.word	0x40098000
   802b0:	4009c000 	.word	0x4009c000
   802b4:	400a0000 	.word	0x400a0000
   802b8:	400a4000 	.word	0x400a4000
   802bc:	0008047b 	.word	0x0008047b
   802c0:	00080201 	.word	0x00080201

000802c4 <usart_serial_putchar>:
{
   802c4:	b570      	push	{r4, r5, r6, lr}
   802c6:	460c      	mov	r4, r1
	if (UART == (Uart*)p_usart) {
   802c8:	4b1e      	ldr	r3, [pc, #120]	; (80344 <usart_serial_putchar+0x80>)
   802ca:	4298      	cmp	r0, r3
   802cc:	d00d      	beq.n	802ea <usart_serial_putchar+0x26>
	if (USART0 == p_usart) {
   802ce:	4b1e      	ldr	r3, [pc, #120]	; (80348 <usart_serial_putchar+0x84>)
   802d0:	4298      	cmp	r0, r3
   802d2:	d013      	beq.n	802fc <usart_serial_putchar+0x38>
	if (USART1 == p_usart) {
   802d4:	4b1d      	ldr	r3, [pc, #116]	; (8034c <usart_serial_putchar+0x88>)
   802d6:	4298      	cmp	r0, r3
   802d8:	d019      	beq.n	8030e <usart_serial_putchar+0x4a>
	if (USART2 == p_usart) {
   802da:	4b1d      	ldr	r3, [pc, #116]	; (80350 <usart_serial_putchar+0x8c>)
   802dc:	4298      	cmp	r0, r3
   802de:	d01f      	beq.n	80320 <usart_serial_putchar+0x5c>
	if (USART3 == p_usart) {
   802e0:	4b1c      	ldr	r3, [pc, #112]	; (80354 <usart_serial_putchar+0x90>)
   802e2:	4298      	cmp	r0, r3
   802e4:	d025      	beq.n	80332 <usart_serial_putchar+0x6e>
	return 0;
   802e6:	2000      	movs	r0, #0
}
   802e8:	bd70      	pop	{r4, r5, r6, pc}
		while (uart_write((Uart*)p_usart, c)!=0);
   802ea:	461e      	mov	r6, r3
   802ec:	4d1a      	ldr	r5, [pc, #104]	; (80358 <usart_serial_putchar+0x94>)
   802ee:	4621      	mov	r1, r4
   802f0:	4630      	mov	r0, r6
   802f2:	47a8      	blx	r5
   802f4:	2800      	cmp	r0, #0
   802f6:	d1fa      	bne.n	802ee <usart_serial_putchar+0x2a>
		return 1;
   802f8:	2001      	movs	r0, #1
   802fa:	bd70      	pop	{r4, r5, r6, pc}
		while (usart_write(p_usart, c)!=0);
   802fc:	461e      	mov	r6, r3
   802fe:	4d17      	ldr	r5, [pc, #92]	; (8035c <usart_serial_putchar+0x98>)
   80300:	4621      	mov	r1, r4
   80302:	4630      	mov	r0, r6
   80304:	47a8      	blx	r5
   80306:	2800      	cmp	r0, #0
   80308:	d1fa      	bne.n	80300 <usart_serial_putchar+0x3c>
		return 1;
   8030a:	2001      	movs	r0, #1
   8030c:	bd70      	pop	{r4, r5, r6, pc}
		while (usart_write(p_usart, c)!=0);
   8030e:	461e      	mov	r6, r3
   80310:	4d12      	ldr	r5, [pc, #72]	; (8035c <usart_serial_putchar+0x98>)
   80312:	4621      	mov	r1, r4
   80314:	4630      	mov	r0, r6
   80316:	47a8      	blx	r5
   80318:	2800      	cmp	r0, #0
   8031a:	d1fa      	bne.n	80312 <usart_serial_putchar+0x4e>
		return 1;
   8031c:	2001      	movs	r0, #1
   8031e:	bd70      	pop	{r4, r5, r6, pc}
		while (usart_write(p_usart, c)!=0);
   80320:	461e      	mov	r6, r3
   80322:	4d0e      	ldr	r5, [pc, #56]	; (8035c <usart_serial_putchar+0x98>)
   80324:	4621      	mov	r1, r4
   80326:	4630      	mov	r0, r6
   80328:	47a8      	blx	r5
   8032a:	2800      	cmp	r0, #0
   8032c:	d1fa      	bne.n	80324 <usart_serial_putchar+0x60>
		return 1;
   8032e:	2001      	movs	r0, #1
   80330:	bd70      	pop	{r4, r5, r6, pc}
		while (usart_write(p_usart, c)!=0);
   80332:	461e      	mov	r6, r3
   80334:	4d09      	ldr	r5, [pc, #36]	; (8035c <usart_serial_putchar+0x98>)
   80336:	4621      	mov	r1, r4
   80338:	4630      	mov	r0, r6
   8033a:	47a8      	blx	r5
   8033c:	2800      	cmp	r0, #0
   8033e:	d1fa      	bne.n	80336 <usart_serial_putchar+0x72>
		return 1;
   80340:	2001      	movs	r0, #1
   80342:	bd70      	pop	{r4, r5, r6, pc}
   80344:	400e0800 	.word	0x400e0800
   80348:	40098000 	.word	0x40098000
   8034c:	4009c000 	.word	0x4009c000
   80350:	400a0000 	.word	0x400a0000
   80354:	400a4000 	.word	0x400a4000
   80358:	0008046b 	.word	0x0008046b
   8035c:	000801ed 	.word	0x000801ed

00080360 <printfConsole>:
#include <stdio.h>




void printfConsole(const char * str) {
   80360:	b510      	push	{r4, lr}
   80362:	4604      	mov	r4, r0
	
	int i;
	i = 0;
	
	if(xSemaphoreTake( xSemaphore, (TickType_t) 1) == pdTRUE) {	/* Check if the semaphore is available, otherwise check again after 1 ms */
   80364:	2101      	movs	r1, #1
   80366:	4b0c      	ldr	r3, [pc, #48]	; (80398 <printfConsole+0x38>)
   80368:	6818      	ldr	r0, [r3, #0]
   8036a:	4b0c      	ldr	r3, [pc, #48]	; (8039c <printfConsole+0x3c>)
   8036c:	4798      	blx	r3
   8036e:	2801      	cmp	r0, #1
   80370:	d000      	beq.n	80374 <printfConsole+0x14>
   80372:	bd10      	pop	{r4, pc}
		while(str[i] != '\0') {				/* Run the loop until the end of the string is reached */
   80374:	7823      	ldrb	r3, [r4, #0]
   80376:	b13b      	cbz	r3, 80388 <printfConsole+0x28>
   80378:	4621      	mov	r1, r4
   8037a:	4620      	mov	r0, r4
			CONF_UART->UART_THR = str;		/*Print the character from the string */
   8037c:	4a08      	ldr	r2, [pc, #32]	; (803a0 <printfConsole+0x40>)
   8037e:	61d1      	str	r1, [r2, #28]
		while(str[i] != '\0') {				/* Run the loop until the end of the string is reached */
   80380:	f810 3f01 	ldrb.w	r3, [r0, #1]!
   80384:	2b00      	cmp	r3, #0
   80386:	d1fa      	bne.n	8037e <printfConsole+0x1e>
			i++;
		}
		xSemaphoreGive(xSemaphore);		/* Free up the semaphore for other tasks */
   80388:	2300      	movs	r3, #0
   8038a:	461a      	mov	r2, r3
   8038c:	4619      	mov	r1, r3
   8038e:	4802      	ldr	r0, [pc, #8]	; (80398 <printfConsole+0x38>)
   80390:	6800      	ldr	r0, [r0, #0]
   80392:	4c04      	ldr	r4, [pc, #16]	; (803a4 <printfConsole+0x44>)
   80394:	47a0      	blx	r4
	}
	
}
   80396:	e7ec      	b.n	80372 <printfConsole+0x12>
   80398:	2007c394 	.word	0x2007c394
   8039c:	00080f1d 	.word	0x00080f1d
   803a0:	400e0800 	.word	0x400e0800
   803a4:	00080ad1 	.word	0x00080ad1

000803a8 <console_init>:

void console_init()
{
   803a8:	b530      	push	{r4, r5, lr}
   803aa:	b085      	sub	sp, #20
	xSemaphore = xSemaphoreCreateMutex();
   803ac:	2001      	movs	r0, #1
   803ae:	4b14      	ldr	r3, [pc, #80]	; (80400 <console_init+0x58>)
   803b0:	4798      	blx	r3
   803b2:	4b14      	ldr	r3, [pc, #80]	; (80404 <console_init+0x5c>)
   803b4:	6018      	str	r0, [r3, #0]
 * \param opt         Options needed to set up RS232 communication (see \ref usart_options_t).
 *
 */
static inline void stdio_serial_init(volatile void *usart, const usart_serial_options_t *opt)
{
	stdio_base = (void *)usart;
   803b6:	4c14      	ldr	r4, [pc, #80]	; (80408 <console_init+0x60>)
   803b8:	4b14      	ldr	r3, [pc, #80]	; (8040c <console_init+0x64>)
   803ba:	601c      	str	r4, [r3, #0]
	ptr_put = (int (*)(void volatile*,char))&usart_serial_putchar;
   803bc:	4a14      	ldr	r2, [pc, #80]	; (80410 <console_init+0x68>)
   803be:	4b15      	ldr	r3, [pc, #84]	; (80414 <console_init+0x6c>)
   803c0:	601a      	str	r2, [r3, #0]
	ptr_get = (void (*)(void volatile*,char*))&usart_serial_getchar;
   803c2:	4a15      	ldr	r2, [pc, #84]	; (80418 <console_init+0x70>)
   803c4:	4b15      	ldr	r3, [pc, #84]	; (8041c <console_init+0x74>)
   803c6:	601a      	str	r2, [r3, #0]
	uart_settings.ul_mck = sysclk_get_peripheral_hz();
   803c8:	4b15      	ldr	r3, [pc, #84]	; (80420 <console_init+0x78>)
   803ca:	9301      	str	r3, [sp, #4]
	uart_settings.ul_baudrate = opt->baudrate;
   803cc:	f44f 33e1 	mov.w	r3, #115200	; 0x1c200
   803d0:	9302      	str	r3, [sp, #8]
	uart_settings.ul_mode = opt->paritytype;
   803d2:	f44f 6300 	mov.w	r3, #2048	; 0x800
   803d6:	9303      	str	r3, [sp, #12]
 *
 * \param ul_id Id (number) of the peripheral clock.
 */
static inline void sysclk_enable_peripheral_clock(uint32_t ul_id)
{
	pmc_enable_periph_clk(ul_id);
   803d8:	2008      	movs	r0, #8
   803da:	4b12      	ldr	r3, [pc, #72]	; (80424 <console_init+0x7c>)
   803dc:	4798      	blx	r3
		uart_init((Uart*)p_usart, &uart_settings);
   803de:	a901      	add	r1, sp, #4
   803e0:	4620      	mov	r0, r4
   803e2:	4b11      	ldr	r3, [pc, #68]	; (80428 <console_init+0x80>)
   803e4:	4798      	blx	r3
	fdevopen((int (*)(char, FILE*))(_write),(int (*)(FILE*))(_read));
#  endif
#  if UC3 || SAM
	// For AVR32 and SAM GCC
	// Specify that stdout and stdin should not be buffered.
	setbuf(stdout, NULL);
   803e6:	4d11      	ldr	r5, [pc, #68]	; (8042c <console_init+0x84>)
   803e8:	682b      	ldr	r3, [r5, #0]
   803ea:	2100      	movs	r1, #0
   803ec:	6898      	ldr	r0, [r3, #8]
   803ee:	4c10      	ldr	r4, [pc, #64]	; (80430 <console_init+0x88>)
   803f0:	47a0      	blx	r4
	setbuf(stdin, NULL);
   803f2:	682b      	ldr	r3, [r5, #0]
   803f4:	2100      	movs	r1, #0
   803f6:	6858      	ldr	r0, [r3, #4]
   803f8:	47a0      	blx	r4
	};
	
	
	stdio_serial_init(CONF_UART, &usart_serial_options);

}
   803fa:	b005      	add	sp, #20
   803fc:	bd30      	pop	{r4, r5, pc}
   803fe:	bf00      	nop
   80400:	00080c85 	.word	0x00080c85
   80404:	2007c394 	.word	0x2007c394
   80408:	400e0800 	.word	0x400e0800
   8040c:	2007c390 	.word	0x2007c390
   80410:	000802c5 	.word	0x000802c5
   80414:	2007c38c 	.word	0x2007c38c
   80418:	00080219 	.word	0x00080219
   8041c:	2007c388 	.word	0x2007c388
   80420:	0501bd00 	.word	0x0501bd00
   80424:	000825e1 	.word	0x000825e1
   80428:	00080435 	.word	0x00080435
   8042c:	20070134 	.word	0x20070134
   80430:	00082ac9 	.word	0x00082ac9

00080434 <uart_init>:
   80434:	b410      	push	{r4}
   80436:	23ac      	movs	r3, #172	; 0xac
   80438:	6003      	str	r3, [r0, #0]
   8043a:	680b      	ldr	r3, [r1, #0]
   8043c:	684a      	ldr	r2, [r1, #4]
   8043e:	fbb3 f3f2 	udiv	r3, r3, r2
   80442:	091b      	lsrs	r3, r3, #4
   80444:	1e5c      	subs	r4, r3, #1
   80446:	f64f 72fe 	movw	r2, #65534	; 0xfffe
   8044a:	4294      	cmp	r4, r2
   8044c:	d80b      	bhi.n	80466 <uart_init+0x32>
   8044e:	6203      	str	r3, [r0, #32]
   80450:	688b      	ldr	r3, [r1, #8]
   80452:	6043      	str	r3, [r0, #4]
   80454:	f240 2302 	movw	r3, #514	; 0x202
   80458:	f8c0 3120 	str.w	r3, [r0, #288]	; 0x120
   8045c:	2350      	movs	r3, #80	; 0x50
   8045e:	6003      	str	r3, [r0, #0]
   80460:	2000      	movs	r0, #0
   80462:	bc10      	pop	{r4}
   80464:	4770      	bx	lr
   80466:	2001      	movs	r0, #1
   80468:	e7fb      	b.n	80462 <uart_init+0x2e>

0008046a <uart_write>:
   8046a:	6943      	ldr	r3, [r0, #20]
   8046c:	f013 0f02 	tst.w	r3, #2
   80470:	bf1a      	itte	ne
   80472:	61c1      	strne	r1, [r0, #28]
   80474:	2000      	movne	r0, #0
   80476:	2001      	moveq	r0, #1
   80478:	4770      	bx	lr

0008047a <uart_read>:
   8047a:	6943      	ldr	r3, [r0, #20]
   8047c:	f013 0f01 	tst.w	r3, #1
   80480:	bf1d      	ittte	ne
   80482:	6983      	ldrne	r3, [r0, #24]
   80484:	700b      	strbne	r3, [r1, #0]
   80486:	2000      	movne	r0, #0
   80488:	2001      	moveq	r0, #1
   8048a:	4770      	bx	lr

0008048c <vListInitialise>:
   8048c:	f100 0308 	add.w	r3, r0, #8
   80490:	6043      	str	r3, [r0, #4]
   80492:	f04f 32ff 	mov.w	r2, #4294967295
   80496:	6082      	str	r2, [r0, #8]
   80498:	60c3      	str	r3, [r0, #12]
   8049a:	6103      	str	r3, [r0, #16]
   8049c:	2300      	movs	r3, #0
   8049e:	6003      	str	r3, [r0, #0]
   804a0:	4770      	bx	lr

000804a2 <vListInitialiseItem>:
   804a2:	2300      	movs	r3, #0
   804a4:	6103      	str	r3, [r0, #16]
   804a6:	4770      	bx	lr

000804a8 <vListInsertEnd>:
   804a8:	6843      	ldr	r3, [r0, #4]
   804aa:	604b      	str	r3, [r1, #4]
   804ac:	689a      	ldr	r2, [r3, #8]
   804ae:	608a      	str	r2, [r1, #8]
   804b0:	689a      	ldr	r2, [r3, #8]
   804b2:	6051      	str	r1, [r2, #4]
   804b4:	6099      	str	r1, [r3, #8]
   804b6:	6108      	str	r0, [r1, #16]
   804b8:	6803      	ldr	r3, [r0, #0]
   804ba:	3301      	adds	r3, #1
   804bc:	6003      	str	r3, [r0, #0]
   804be:	4770      	bx	lr

000804c0 <vListInsert>:
   804c0:	b430      	push	{r4, r5}
   804c2:	680d      	ldr	r5, [r1, #0]
   804c4:	f1b5 3fff 	cmp.w	r5, #4294967295
   804c8:	d002      	beq.n	804d0 <vListInsert+0x10>
   804ca:	f100 0208 	add.w	r2, r0, #8
   804ce:	e002      	b.n	804d6 <vListInsert+0x16>
   804d0:	6902      	ldr	r2, [r0, #16]
   804d2:	e004      	b.n	804de <vListInsert+0x1e>
   804d4:	461a      	mov	r2, r3
   804d6:	6853      	ldr	r3, [r2, #4]
   804d8:	681c      	ldr	r4, [r3, #0]
   804da:	42a5      	cmp	r5, r4
   804dc:	d2fa      	bcs.n	804d4 <vListInsert+0x14>
   804de:	6853      	ldr	r3, [r2, #4]
   804e0:	604b      	str	r3, [r1, #4]
   804e2:	6099      	str	r1, [r3, #8]
   804e4:	608a      	str	r2, [r1, #8]
   804e6:	6051      	str	r1, [r2, #4]
   804e8:	6108      	str	r0, [r1, #16]
   804ea:	6803      	ldr	r3, [r0, #0]
   804ec:	3301      	adds	r3, #1
   804ee:	6003      	str	r3, [r0, #0]
   804f0:	bc30      	pop	{r4, r5}
   804f2:	4770      	bx	lr

000804f4 <uxListRemove>:
   804f4:	6903      	ldr	r3, [r0, #16]
   804f6:	6842      	ldr	r2, [r0, #4]
   804f8:	6881      	ldr	r1, [r0, #8]
   804fa:	6091      	str	r1, [r2, #8]
   804fc:	6882      	ldr	r2, [r0, #8]
   804fe:	6841      	ldr	r1, [r0, #4]
   80500:	6051      	str	r1, [r2, #4]
   80502:	685a      	ldr	r2, [r3, #4]
   80504:	4290      	cmp	r0, r2
   80506:	bf04      	itt	eq
   80508:	6882      	ldreq	r2, [r0, #8]
   8050a:	605a      	streq	r2, [r3, #4]
   8050c:	2200      	movs	r2, #0
   8050e:	6102      	str	r2, [r0, #16]
   80510:	681a      	ldr	r2, [r3, #0]
   80512:	3a01      	subs	r2, #1
   80514:	601a      	str	r2, [r3, #0]
   80516:	6818      	ldr	r0, [r3, #0]
   80518:	4770      	bx	lr
	...

0008051c <prvTaskExitError>:
   8051c:	b082      	sub	sp, #8
   8051e:	2300      	movs	r3, #0
   80520:	9301      	str	r3, [sp, #4]
   80522:	4b0d      	ldr	r3, [pc, #52]	; (80558 <prvTaskExitError+0x3c>)
   80524:	681b      	ldr	r3, [r3, #0]
   80526:	f1b3 3fff 	cmp.w	r3, #4294967295
   8052a:	d008      	beq.n	8053e <prvTaskExitError+0x22>
   8052c:	f04f 0340 	mov.w	r3, #64	; 0x40
   80530:	f383 8811 	msr	BASEPRI, r3
   80534:	f3bf 8f6f 	isb	sy
   80538:	f3bf 8f4f 	dsb	sy
   8053c:	e7fe      	b.n	8053c <prvTaskExitError+0x20>
   8053e:	f04f 0340 	mov.w	r3, #64	; 0x40
   80542:	f383 8811 	msr	BASEPRI, r3
   80546:	f3bf 8f6f 	isb	sy
   8054a:	f3bf 8f4f 	dsb	sy
   8054e:	9b01      	ldr	r3, [sp, #4]
   80550:	2b00      	cmp	r3, #0
   80552:	d0fc      	beq.n	8054e <prvTaskExitError+0x32>
   80554:	b002      	add	sp, #8
   80556:	4770      	bx	lr
   80558:	2007012c 	.word	0x2007012c

0008055c <prvPortStartFirstTask>:
   8055c:	4806      	ldr	r0, [pc, #24]	; (80578 <prvPortStartFirstTask+0x1c>)
   8055e:	6800      	ldr	r0, [r0, #0]
   80560:	6800      	ldr	r0, [r0, #0]
   80562:	f380 8808 	msr	MSP, r0
   80566:	b662      	cpsie	i
   80568:	b661      	cpsie	f
   8056a:	f3bf 8f4f 	dsb	sy
   8056e:	f3bf 8f6f 	isb	sy
   80572:	df00      	svc	0
   80574:	bf00      	nop
   80576:	0000      	.short	0x0000
   80578:	e000ed08 	.word	0xe000ed08

0008057c <pxPortInitialiseStack>:
   8057c:	f04f 7380 	mov.w	r3, #16777216	; 0x1000000
   80580:	f840 3c04 	str.w	r3, [r0, #-4]
   80584:	f021 0101 	bic.w	r1, r1, #1
   80588:	f840 1c08 	str.w	r1, [r0, #-8]
   8058c:	4b03      	ldr	r3, [pc, #12]	; (8059c <pxPortInitialiseStack+0x20>)
   8058e:	f840 3c0c 	str.w	r3, [r0, #-12]
   80592:	f840 2c20 	str.w	r2, [r0, #-32]
   80596:	3840      	subs	r0, #64	; 0x40
   80598:	4770      	bx	lr
   8059a:	bf00      	nop
   8059c:	0008051d 	.word	0x0008051d

000805a0 <SVC_Handler>:
   805a0:	4b07      	ldr	r3, [pc, #28]	; (805c0 <pxCurrentTCBConst2>)
   805a2:	6819      	ldr	r1, [r3, #0]
   805a4:	6808      	ldr	r0, [r1, #0]
   805a6:	e8b0 0ff0 	ldmia.w	r0!, {r4, r5, r6, r7, r8, r9, sl, fp}
   805aa:	f380 8809 	msr	PSP, r0
   805ae:	f3bf 8f6f 	isb	sy
   805b2:	f04f 0000 	mov.w	r0, #0
   805b6:	f380 8811 	msr	BASEPRI, r0
   805ba:	f04e 0e0d 	orr.w	lr, lr, #13
   805be:	4770      	bx	lr

000805c0 <pxCurrentTCBConst2>:
   805c0:	2007c1a0 	.word	0x2007c1a0
   805c4:	4770      	bx	lr
   805c6:	bf00      	nop

000805c8 <vPortEnterCritical>:
   805c8:	f04f 0340 	mov.w	r3, #64	; 0x40
   805cc:	f383 8811 	msr	BASEPRI, r3
   805d0:	f3bf 8f6f 	isb	sy
   805d4:	f3bf 8f4f 	dsb	sy
   805d8:	4a0a      	ldr	r2, [pc, #40]	; (80604 <vPortEnterCritical+0x3c>)
   805da:	6813      	ldr	r3, [r2, #0]
   805dc:	3301      	adds	r3, #1
   805de:	6013      	str	r3, [r2, #0]
   805e0:	2b01      	cmp	r3, #1
   805e2:	d10d      	bne.n	80600 <vPortEnterCritical+0x38>
   805e4:	4b08      	ldr	r3, [pc, #32]	; (80608 <vPortEnterCritical+0x40>)
   805e6:	681b      	ldr	r3, [r3, #0]
   805e8:	f013 0fff 	tst.w	r3, #255	; 0xff
   805ec:	d008      	beq.n	80600 <vPortEnterCritical+0x38>
   805ee:	f04f 0340 	mov.w	r3, #64	; 0x40
   805f2:	f383 8811 	msr	BASEPRI, r3
   805f6:	f3bf 8f6f 	isb	sy
   805fa:	f3bf 8f4f 	dsb	sy
   805fe:	e7fe      	b.n	805fe <vPortEnterCritical+0x36>
   80600:	4770      	bx	lr
   80602:	bf00      	nop
   80604:	2007012c 	.word	0x2007012c
   80608:	e000ed04 	.word	0xe000ed04

0008060c <vPortExitCritical>:
   8060c:	4b09      	ldr	r3, [pc, #36]	; (80634 <vPortExitCritical+0x28>)
   8060e:	681b      	ldr	r3, [r3, #0]
   80610:	b943      	cbnz	r3, 80624 <vPortExitCritical+0x18>
   80612:	f04f 0340 	mov.w	r3, #64	; 0x40
   80616:	f383 8811 	msr	BASEPRI, r3
   8061a:	f3bf 8f6f 	isb	sy
   8061e:	f3bf 8f4f 	dsb	sy
   80622:	e7fe      	b.n	80622 <vPortExitCritical+0x16>
   80624:	3b01      	subs	r3, #1
   80626:	4a03      	ldr	r2, [pc, #12]	; (80634 <vPortExitCritical+0x28>)
   80628:	6013      	str	r3, [r2, #0]
   8062a:	b90b      	cbnz	r3, 80630 <vPortExitCritical+0x24>
   8062c:	f383 8811 	msr	BASEPRI, r3
   80630:	4770      	bx	lr
   80632:	bf00      	nop
   80634:	2007012c 	.word	0x2007012c
	...

00080640 <PendSV_Handler>:
   80640:	f3ef 8009 	mrs	r0, PSP
   80644:	f3bf 8f6f 	isb	sy
   80648:	4b0d      	ldr	r3, [pc, #52]	; (80680 <pxCurrentTCBConst>)
   8064a:	681a      	ldr	r2, [r3, #0]
   8064c:	e920 0ff0 	stmdb	r0!, {r4, r5, r6, r7, r8, r9, sl, fp}
   80650:	6010      	str	r0, [r2, #0]
   80652:	e92d 4008 	stmdb	sp!, {r3, lr}
   80656:	f04f 0040 	mov.w	r0, #64	; 0x40
   8065a:	f380 8811 	msr	BASEPRI, r0
   8065e:	f001 f905 	bl	8186c <vTaskSwitchContext>
   80662:	f04f 0000 	mov.w	r0, #0
   80666:	f380 8811 	msr	BASEPRI, r0
   8066a:	e8bd 4008 	ldmia.w	sp!, {r3, lr}
   8066e:	6819      	ldr	r1, [r3, #0]
   80670:	6808      	ldr	r0, [r1, #0]
   80672:	e8b0 0ff0 	ldmia.w	r0!, {r4, r5, r6, r7, r8, r9, sl, fp}
   80676:	f380 8809 	msr	PSP, r0
   8067a:	f3bf 8f6f 	isb	sy
   8067e:	4770      	bx	lr

00080680 <pxCurrentTCBConst>:
   80680:	2007c1a0 	.word	0x2007c1a0
   80684:	4770      	bx	lr
   80686:	bf00      	nop

00080688 <SysTick_Handler>:
   80688:	b508      	push	{r3, lr}
   8068a:	f04f 0340 	mov.w	r3, #64	; 0x40
   8068e:	f383 8811 	msr	BASEPRI, r3
   80692:	f3bf 8f6f 	isb	sy
   80696:	f3bf 8f4f 	dsb	sy
   8069a:	4b05      	ldr	r3, [pc, #20]	; (806b0 <SysTick_Handler+0x28>)
   8069c:	4798      	blx	r3
   8069e:	b118      	cbz	r0, 806a8 <SysTick_Handler+0x20>
   806a0:	f04f 5280 	mov.w	r2, #268435456	; 0x10000000
   806a4:	4b03      	ldr	r3, [pc, #12]	; (806b4 <SysTick_Handler+0x2c>)
   806a6:	601a      	str	r2, [r3, #0]
   806a8:	2300      	movs	r3, #0
   806aa:	f383 8811 	msr	BASEPRI, r3
   806ae:	bd08      	pop	{r3, pc}
   806b0:	00081579 	.word	0x00081579
   806b4:	e000ed04 	.word	0xe000ed04

000806b8 <vPortSetupTimerInterrupt>:
   806b8:	4b05      	ldr	r3, [pc, #20]	; (806d0 <vPortSetupTimerInterrupt+0x18>)
   806ba:	2200      	movs	r2, #0
   806bc:	601a      	str	r2, [r3, #0]
   806be:	4905      	ldr	r1, [pc, #20]	; (806d4 <vPortSetupTimerInterrupt+0x1c>)
   806c0:	600a      	str	r2, [r1, #0]
   806c2:	4905      	ldr	r1, [pc, #20]	; (806d8 <vPortSetupTimerInterrupt+0x20>)
   806c4:	4a05      	ldr	r2, [pc, #20]	; (806dc <vPortSetupTimerInterrupt+0x24>)
   806c6:	6011      	str	r1, [r2, #0]
   806c8:	2207      	movs	r2, #7
   806ca:	601a      	str	r2, [r3, #0]
   806cc:	4770      	bx	lr
   806ce:	bf00      	nop
   806d0:	e000e010 	.word	0xe000e010
   806d4:	e000e018 	.word	0xe000e018
   806d8:	0001481f 	.word	0x0001481f
   806dc:	e000e014 	.word	0xe000e014

000806e0 <xPortStartScheduler>:
   806e0:	b510      	push	{r4, lr}
   806e2:	b082      	sub	sp, #8
   806e4:	4b29      	ldr	r3, [pc, #164]	; (8078c <xPortStartScheduler+0xac>)
   806e6:	781a      	ldrb	r2, [r3, #0]
   806e8:	b2d2      	uxtb	r2, r2
   806ea:	9201      	str	r2, [sp, #4]
   806ec:	22ff      	movs	r2, #255	; 0xff
   806ee:	701a      	strb	r2, [r3, #0]
   806f0:	781b      	ldrb	r3, [r3, #0]
   806f2:	b2db      	uxtb	r3, r3
   806f4:	f88d 3003 	strb.w	r3, [sp, #3]
   806f8:	f89d 3003 	ldrb.w	r3, [sp, #3]
   806fc:	f003 0340 	and.w	r3, r3, #64	; 0x40
   80700:	4a23      	ldr	r2, [pc, #140]	; (80790 <xPortStartScheduler+0xb0>)
   80702:	7013      	strb	r3, [r2, #0]
   80704:	2207      	movs	r2, #7
   80706:	4b23      	ldr	r3, [pc, #140]	; (80794 <xPortStartScheduler+0xb4>)
   80708:	601a      	str	r2, [r3, #0]
   8070a:	f89d 3003 	ldrb.w	r3, [sp, #3]
   8070e:	f013 0f80 	tst.w	r3, #128	; 0x80
   80712:	d012      	beq.n	8073a <xPortStartScheduler+0x5a>
   80714:	2306      	movs	r3, #6
   80716:	e000      	b.n	8071a <xPortStartScheduler+0x3a>
   80718:	460b      	mov	r3, r1
   8071a:	f89d 2003 	ldrb.w	r2, [sp, #3]
   8071e:	0052      	lsls	r2, r2, #1
   80720:	b2d2      	uxtb	r2, r2
   80722:	f88d 2003 	strb.w	r2, [sp, #3]
   80726:	f89d 2003 	ldrb.w	r2, [sp, #3]
   8072a:	1e59      	subs	r1, r3, #1
   8072c:	f012 0f80 	tst.w	r2, #128	; 0x80
   80730:	d1f2      	bne.n	80718 <xPortStartScheduler+0x38>
   80732:	4a18      	ldr	r2, [pc, #96]	; (80794 <xPortStartScheduler+0xb4>)
   80734:	6013      	str	r3, [r2, #0]
   80736:	2b03      	cmp	r3, #3
   80738:	d008      	beq.n	8074c <xPortStartScheduler+0x6c>
   8073a:	f04f 0340 	mov.w	r3, #64	; 0x40
   8073e:	f383 8811 	msr	BASEPRI, r3
   80742:	f3bf 8f6f 	isb	sy
   80746:	f3bf 8f4f 	dsb	sy
   8074a:	e7fe      	b.n	8074a <xPortStartScheduler+0x6a>
   8074c:	021b      	lsls	r3, r3, #8
   8074e:	f403 63e0 	and.w	r3, r3, #1792	; 0x700
   80752:	4a10      	ldr	r2, [pc, #64]	; (80794 <xPortStartScheduler+0xb4>)
   80754:	6013      	str	r3, [r2, #0]
   80756:	9b01      	ldr	r3, [sp, #4]
   80758:	b2db      	uxtb	r3, r3
   8075a:	4a0c      	ldr	r2, [pc, #48]	; (8078c <xPortStartScheduler+0xac>)
   8075c:	7013      	strb	r3, [r2, #0]
   8075e:	4b0e      	ldr	r3, [pc, #56]	; (80798 <xPortStartScheduler+0xb8>)
   80760:	681a      	ldr	r2, [r3, #0]
   80762:	f442 02e0 	orr.w	r2, r2, #7340032	; 0x700000
   80766:	601a      	str	r2, [r3, #0]
   80768:	681a      	ldr	r2, [r3, #0]
   8076a:	f042 42e0 	orr.w	r2, r2, #1879048192	; 0x70000000
   8076e:	601a      	str	r2, [r3, #0]
   80770:	4b0a      	ldr	r3, [pc, #40]	; (8079c <xPortStartScheduler+0xbc>)
   80772:	4798      	blx	r3
   80774:	2400      	movs	r4, #0
   80776:	4b0a      	ldr	r3, [pc, #40]	; (807a0 <xPortStartScheduler+0xc0>)
   80778:	601c      	str	r4, [r3, #0]
   8077a:	4b0a      	ldr	r3, [pc, #40]	; (807a4 <xPortStartScheduler+0xc4>)
   8077c:	4798      	blx	r3
   8077e:	4b0a      	ldr	r3, [pc, #40]	; (807a8 <xPortStartScheduler+0xc8>)
   80780:	4798      	blx	r3
   80782:	4b0a      	ldr	r3, [pc, #40]	; (807ac <xPortStartScheduler+0xcc>)
   80784:	4798      	blx	r3
   80786:	4620      	mov	r0, r4
   80788:	b002      	add	sp, #8
   8078a:	bd10      	pop	{r4, pc}
   8078c:	e000e400 	.word	0xe000e400
   80790:	20070990 	.word	0x20070990
   80794:	20070994 	.word	0x20070994
   80798:	e000ed20 	.word	0xe000ed20
   8079c:	000806b9 	.word	0x000806b9
   807a0:	2007012c 	.word	0x2007012c
   807a4:	0008055d 	.word	0x0008055d
   807a8:	0008186d 	.word	0x0008186d
   807ac:	0008051d 	.word	0x0008051d

000807b0 <vPortValidateInterruptPriority>:
   807b0:	f3ef 8305 	mrs	r3, IPSR
   807b4:	2b0f      	cmp	r3, #15
   807b6:	d90f      	bls.n	807d8 <vPortValidateInterruptPriority+0x28>
   807b8:	4a10      	ldr	r2, [pc, #64]	; (807fc <vPortValidateInterruptPriority+0x4c>)
   807ba:	5c9b      	ldrb	r3, [r3, r2]
   807bc:	b2db      	uxtb	r3, r3
   807be:	4a10      	ldr	r2, [pc, #64]	; (80800 <vPortValidateInterruptPriority+0x50>)
   807c0:	7812      	ldrb	r2, [r2, #0]
   807c2:	429a      	cmp	r2, r3
   807c4:	d908      	bls.n	807d8 <vPortValidateInterruptPriority+0x28>
   807c6:	f04f 0340 	mov.w	r3, #64	; 0x40
   807ca:	f383 8811 	msr	BASEPRI, r3
   807ce:	f3bf 8f6f 	isb	sy
   807d2:	f3bf 8f4f 	dsb	sy
   807d6:	e7fe      	b.n	807d6 <vPortValidateInterruptPriority+0x26>
   807d8:	4b0a      	ldr	r3, [pc, #40]	; (80804 <vPortValidateInterruptPriority+0x54>)
   807da:	681b      	ldr	r3, [r3, #0]
   807dc:	f403 63e0 	and.w	r3, r3, #1792	; 0x700
   807e0:	4a09      	ldr	r2, [pc, #36]	; (80808 <vPortValidateInterruptPriority+0x58>)
   807e2:	6812      	ldr	r2, [r2, #0]
   807e4:	4293      	cmp	r3, r2
   807e6:	d908      	bls.n	807fa <vPortValidateInterruptPriority+0x4a>
   807e8:	f04f 0340 	mov.w	r3, #64	; 0x40
   807ec:	f383 8811 	msr	BASEPRI, r3
   807f0:	f3bf 8f6f 	isb	sy
   807f4:	f3bf 8f4f 	dsb	sy
   807f8:	e7fe      	b.n	807f8 <vPortValidateInterruptPriority+0x48>
   807fa:	4770      	bx	lr
   807fc:	e000e3f0 	.word	0xe000e3f0
   80800:	20070990 	.word	0x20070990
   80804:	e000ed0c 	.word	0xe000ed0c
   80808:	20070994 	.word	0x20070994

0008080c <pvPortMalloc>:
   8080c:	b538      	push	{r3, r4, r5, lr}
   8080e:	4604      	mov	r4, r0
   80810:	f010 0f07 	tst.w	r0, #7
   80814:	bf1c      	itt	ne
   80816:	f020 0407 	bicne.w	r4, r0, #7
   8081a:	3408      	addne	r4, #8
   8081c:	4b10      	ldr	r3, [pc, #64]	; (80860 <pvPortMalloc+0x54>)
   8081e:	4798      	blx	r3
   80820:	4b10      	ldr	r3, [pc, #64]	; (80864 <pvPortMalloc+0x58>)
   80822:	681b      	ldr	r3, [r3, #0]
   80824:	b18b      	cbz	r3, 8084a <pvPortMalloc+0x3e>
   80826:	4b10      	ldr	r3, [pc, #64]	; (80868 <pvPortMalloc+0x5c>)
   80828:	681b      	ldr	r3, [r3, #0]
   8082a:	441c      	add	r4, r3
   8082c:	f24b 72f7 	movw	r2, #47095	; 0xb7f7
   80830:	4294      	cmp	r4, r2
   80832:	d810      	bhi.n	80856 <pvPortMalloc+0x4a>
   80834:	42a3      	cmp	r3, r4
   80836:	d210      	bcs.n	8085a <pvPortMalloc+0x4e>
   80838:	4a0a      	ldr	r2, [pc, #40]	; (80864 <pvPortMalloc+0x58>)
   8083a:	6815      	ldr	r5, [r2, #0]
   8083c:	441d      	add	r5, r3
   8083e:	4b0a      	ldr	r3, [pc, #40]	; (80868 <pvPortMalloc+0x5c>)
   80840:	601c      	str	r4, [r3, #0]
   80842:	4b0a      	ldr	r3, [pc, #40]	; (8086c <pvPortMalloc+0x60>)
   80844:	4798      	blx	r3
   80846:	4628      	mov	r0, r5
   80848:	bd38      	pop	{r3, r4, r5, pc}
   8084a:	4b09      	ldr	r3, [pc, #36]	; (80870 <pvPortMalloc+0x64>)
   8084c:	f023 0307 	bic.w	r3, r3, #7
   80850:	4a04      	ldr	r2, [pc, #16]	; (80864 <pvPortMalloc+0x58>)
   80852:	6013      	str	r3, [r2, #0]
   80854:	e7e7      	b.n	80826 <pvPortMalloc+0x1a>
   80856:	2500      	movs	r5, #0
   80858:	e7f3      	b.n	80842 <pvPortMalloc+0x36>
   8085a:	2500      	movs	r5, #0
   8085c:	e7f1      	b.n	80842 <pvPortMalloc+0x36>
   8085e:	bf00      	nop
   80860:	0008155d 	.word	0x0008155d
   80864:	20070998 	.word	0x20070998
   80868:	2007c19c 	.word	0x2007c19c
   8086c:	000816ad 	.word	0x000816ad
   80870:	200709a4 	.word	0x200709a4

00080874 <vPortFree>:
   80874:	b140      	cbz	r0, 80888 <vPortFree+0x14>
   80876:	f04f 0340 	mov.w	r3, #64	; 0x40
   8087a:	f383 8811 	msr	BASEPRI, r3
   8087e:	f3bf 8f6f 	isb	sy
   80882:	f3bf 8f4f 	dsb	sy
   80886:	e7fe      	b.n	80886 <vPortFree+0x12>
   80888:	4770      	bx	lr
	...

0008088c <prvIsQueueEmpty>:
   8088c:	b510      	push	{r4, lr}
   8088e:	4604      	mov	r4, r0
   80890:	4b04      	ldr	r3, [pc, #16]	; (808a4 <prvIsQueueEmpty+0x18>)
   80892:	4798      	blx	r3
   80894:	6ba4      	ldr	r4, [r4, #56]	; 0x38
   80896:	4b04      	ldr	r3, [pc, #16]	; (808a8 <prvIsQueueEmpty+0x1c>)
   80898:	4798      	blx	r3
   8089a:	fab4 f084 	clz	r0, r4
   8089e:	0940      	lsrs	r0, r0, #5
   808a0:	bd10      	pop	{r4, pc}
   808a2:	bf00      	nop
   808a4:	000805c9 	.word	0x000805c9
   808a8:	0008060d 	.word	0x0008060d

000808ac <prvCopyDataToQueue>:
   808ac:	b570      	push	{r4, r5, r6, lr}
   808ae:	4604      	mov	r4, r0
   808b0:	4616      	mov	r6, r2
   808b2:	6b85      	ldr	r5, [r0, #56]	; 0x38
   808b4:	6c02      	ldr	r2, [r0, #64]	; 0x40
   808b6:	b952      	cbnz	r2, 808ce <prvCopyDataToQueue+0x22>
   808b8:	6803      	ldr	r3, [r0, #0]
   808ba:	2b00      	cmp	r3, #0
   808bc:	d12a      	bne.n	80914 <prvCopyDataToQueue+0x68>
   808be:	6840      	ldr	r0, [r0, #4]
   808c0:	4b18      	ldr	r3, [pc, #96]	; (80924 <prvCopyDataToQueue+0x78>)
   808c2:	4798      	blx	r3
   808c4:	2300      	movs	r3, #0
   808c6:	6063      	str	r3, [r4, #4]
   808c8:	3501      	adds	r5, #1
   808ca:	63a5      	str	r5, [r4, #56]	; 0x38
   808cc:	bd70      	pop	{r4, r5, r6, pc}
   808ce:	b96e      	cbnz	r6, 808ec <prvCopyDataToQueue+0x40>
   808d0:	6880      	ldr	r0, [r0, #8]
   808d2:	4b15      	ldr	r3, [pc, #84]	; (80928 <prvCopyDataToQueue+0x7c>)
   808d4:	4798      	blx	r3
   808d6:	68a3      	ldr	r3, [r4, #8]
   808d8:	6c22      	ldr	r2, [r4, #64]	; 0x40
   808da:	4413      	add	r3, r2
   808dc:	60a3      	str	r3, [r4, #8]
   808de:	6862      	ldr	r2, [r4, #4]
   808e0:	4293      	cmp	r3, r2
   808e2:	d319      	bcc.n	80918 <prvCopyDataToQueue+0x6c>
   808e4:	6823      	ldr	r3, [r4, #0]
   808e6:	60a3      	str	r3, [r4, #8]
   808e8:	2000      	movs	r0, #0
   808ea:	e7ed      	b.n	808c8 <prvCopyDataToQueue+0x1c>
   808ec:	68c0      	ldr	r0, [r0, #12]
   808ee:	4b0e      	ldr	r3, [pc, #56]	; (80928 <prvCopyDataToQueue+0x7c>)
   808f0:	4798      	blx	r3
   808f2:	6c23      	ldr	r3, [r4, #64]	; 0x40
   808f4:	425b      	negs	r3, r3
   808f6:	68e2      	ldr	r2, [r4, #12]
   808f8:	441a      	add	r2, r3
   808fa:	60e2      	str	r2, [r4, #12]
   808fc:	6821      	ldr	r1, [r4, #0]
   808fe:	428a      	cmp	r2, r1
   80900:	d202      	bcs.n	80908 <prvCopyDataToQueue+0x5c>
   80902:	6862      	ldr	r2, [r4, #4]
   80904:	4413      	add	r3, r2
   80906:	60e3      	str	r3, [r4, #12]
   80908:	2e02      	cmp	r6, #2
   8090a:	d107      	bne.n	8091c <prvCopyDataToQueue+0x70>
   8090c:	b145      	cbz	r5, 80920 <prvCopyDataToQueue+0x74>
   8090e:	3d01      	subs	r5, #1
   80910:	2000      	movs	r0, #0
   80912:	e7d9      	b.n	808c8 <prvCopyDataToQueue+0x1c>
   80914:	2000      	movs	r0, #0
   80916:	e7d7      	b.n	808c8 <prvCopyDataToQueue+0x1c>
   80918:	2000      	movs	r0, #0
   8091a:	e7d5      	b.n	808c8 <prvCopyDataToQueue+0x1c>
   8091c:	2000      	movs	r0, #0
   8091e:	e7d3      	b.n	808c8 <prvCopyDataToQueue+0x1c>
   80920:	2000      	movs	r0, #0
   80922:	e7d1      	b.n	808c8 <prvCopyDataToQueue+0x1c>
   80924:	00081b9d 	.word	0x00081b9d
   80928:	00082941 	.word	0x00082941

0008092c <prvCopyDataFromQueue>:
   8092c:	6c02      	ldr	r2, [r0, #64]	; 0x40
   8092e:	b172      	cbz	r2, 8094e <prvCopyDataFromQueue+0x22>
   80930:	b510      	push	{r4, lr}
   80932:	4603      	mov	r3, r0
   80934:	68c4      	ldr	r4, [r0, #12]
   80936:	4414      	add	r4, r2
   80938:	60c4      	str	r4, [r0, #12]
   8093a:	6840      	ldr	r0, [r0, #4]
   8093c:	4284      	cmp	r4, r0
   8093e:	bf24      	itt	cs
   80940:	6818      	ldrcs	r0, [r3, #0]
   80942:	60d8      	strcs	r0, [r3, #12]
   80944:	4608      	mov	r0, r1
   80946:	68d9      	ldr	r1, [r3, #12]
   80948:	4b01      	ldr	r3, [pc, #4]	; (80950 <prvCopyDataFromQueue+0x24>)
   8094a:	4798      	blx	r3
   8094c:	bd10      	pop	{r4, pc}
   8094e:	4770      	bx	lr
   80950:	00082941 	.word	0x00082941

00080954 <prvUnlockQueue>:
   80954:	e92d 41f0 	stmdb	sp!, {r4, r5, r6, r7, r8, lr}
   80958:	4605      	mov	r5, r0
   8095a:	4b20      	ldr	r3, [pc, #128]	; (809dc <prvUnlockQueue+0x88>)
   8095c:	4798      	blx	r3
   8095e:	f895 4045 	ldrb.w	r4, [r5, #69]	; 0x45
   80962:	b264      	sxtb	r4, r4
   80964:	2c00      	cmp	r4, #0
   80966:	dd12      	ble.n	8098e <prvUnlockQueue+0x3a>
   80968:	6a6b      	ldr	r3, [r5, #36]	; 0x24
   8096a:	b183      	cbz	r3, 8098e <prvUnlockQueue+0x3a>
   8096c:	f105 0724 	add.w	r7, r5, #36	; 0x24
   80970:	4e1b      	ldr	r6, [pc, #108]	; (809e0 <prvUnlockQueue+0x8c>)
   80972:	f8df 8074 	ldr.w	r8, [pc, #116]	; 809e8 <prvUnlockQueue+0x94>
   80976:	e004      	b.n	80982 <prvUnlockQueue+0x2e>
   80978:	3c01      	subs	r4, #1
   8097a:	b264      	sxtb	r4, r4
   8097c:	b13c      	cbz	r4, 8098e <prvUnlockQueue+0x3a>
   8097e:	6a6b      	ldr	r3, [r5, #36]	; 0x24
   80980:	b12b      	cbz	r3, 8098e <prvUnlockQueue+0x3a>
   80982:	4638      	mov	r0, r7
   80984:	47b0      	blx	r6
   80986:	2800      	cmp	r0, #0
   80988:	d0f6      	beq.n	80978 <prvUnlockQueue+0x24>
   8098a:	47c0      	blx	r8
   8098c:	e7f4      	b.n	80978 <prvUnlockQueue+0x24>
   8098e:	23ff      	movs	r3, #255	; 0xff
   80990:	f885 3045 	strb.w	r3, [r5, #69]	; 0x45
   80994:	4b13      	ldr	r3, [pc, #76]	; (809e4 <prvUnlockQueue+0x90>)
   80996:	4798      	blx	r3
   80998:	4b10      	ldr	r3, [pc, #64]	; (809dc <prvUnlockQueue+0x88>)
   8099a:	4798      	blx	r3
   8099c:	f895 4044 	ldrb.w	r4, [r5, #68]	; 0x44
   809a0:	b264      	sxtb	r4, r4
   809a2:	2c00      	cmp	r4, #0
   809a4:	dd12      	ble.n	809cc <prvUnlockQueue+0x78>
   809a6:	692b      	ldr	r3, [r5, #16]
   809a8:	b183      	cbz	r3, 809cc <prvUnlockQueue+0x78>
   809aa:	f105 0710 	add.w	r7, r5, #16
   809ae:	4e0c      	ldr	r6, [pc, #48]	; (809e0 <prvUnlockQueue+0x8c>)
   809b0:	f8df 8034 	ldr.w	r8, [pc, #52]	; 809e8 <prvUnlockQueue+0x94>
   809b4:	e004      	b.n	809c0 <prvUnlockQueue+0x6c>
   809b6:	3c01      	subs	r4, #1
   809b8:	b264      	sxtb	r4, r4
   809ba:	b13c      	cbz	r4, 809cc <prvUnlockQueue+0x78>
   809bc:	692b      	ldr	r3, [r5, #16]
   809be:	b12b      	cbz	r3, 809cc <prvUnlockQueue+0x78>
   809c0:	4638      	mov	r0, r7
   809c2:	47b0      	blx	r6
   809c4:	2800      	cmp	r0, #0
   809c6:	d0f6      	beq.n	809b6 <prvUnlockQueue+0x62>
   809c8:	47c0      	blx	r8
   809ca:	e7f4      	b.n	809b6 <prvUnlockQueue+0x62>
   809cc:	23ff      	movs	r3, #255	; 0xff
   809ce:	f885 3044 	strb.w	r3, [r5, #68]	; 0x44
   809d2:	4b04      	ldr	r3, [pc, #16]	; (809e4 <prvUnlockQueue+0x90>)
   809d4:	4798      	blx	r3
   809d6:	e8bd 81f0 	ldmia.w	sp!, {r4, r5, r6, r7, r8, pc}
   809da:	bf00      	nop
   809dc:	000805c9 	.word	0x000805c9
   809e0:	0008197d 	.word	0x0008197d
   809e4:	0008060d 	.word	0x0008060d
   809e8:	00081ab1 	.word	0x00081ab1

000809ec <xQueueGenericReset>:
   809ec:	b538      	push	{r3, r4, r5, lr}
   809ee:	b330      	cbz	r0, 80a3e <xQueueGenericReset+0x52>
   809f0:	4604      	mov	r4, r0
   809f2:	460d      	mov	r5, r1
   809f4:	4b1c      	ldr	r3, [pc, #112]	; (80a68 <xQueueGenericReset+0x7c>)
   809f6:	4798      	blx	r3
   809f8:	6822      	ldr	r2, [r4, #0]
   809fa:	6c21      	ldr	r1, [r4, #64]	; 0x40
   809fc:	6be3      	ldr	r3, [r4, #60]	; 0x3c
   809fe:	fb03 f301 	mul.w	r3, r3, r1
   80a02:	18d0      	adds	r0, r2, r3
   80a04:	6060      	str	r0, [r4, #4]
   80a06:	2000      	movs	r0, #0
   80a08:	63a0      	str	r0, [r4, #56]	; 0x38
   80a0a:	60a2      	str	r2, [r4, #8]
   80a0c:	1a5b      	subs	r3, r3, r1
   80a0e:	4413      	add	r3, r2
   80a10:	60e3      	str	r3, [r4, #12]
   80a12:	23ff      	movs	r3, #255	; 0xff
   80a14:	f884 3044 	strb.w	r3, [r4, #68]	; 0x44
   80a18:	f884 3045 	strb.w	r3, [r4, #69]	; 0x45
   80a1c:	b9c5      	cbnz	r5, 80a50 <xQueueGenericReset+0x64>
   80a1e:	6923      	ldr	r3, [r4, #16]
   80a20:	b1eb      	cbz	r3, 80a5e <xQueueGenericReset+0x72>
   80a22:	f104 0010 	add.w	r0, r4, #16
   80a26:	4b11      	ldr	r3, [pc, #68]	; (80a6c <xQueueGenericReset+0x80>)
   80a28:	4798      	blx	r3
   80a2a:	b1c0      	cbz	r0, 80a5e <xQueueGenericReset+0x72>
   80a2c:	f04f 5280 	mov.w	r2, #268435456	; 0x10000000
   80a30:	4b0f      	ldr	r3, [pc, #60]	; (80a70 <xQueueGenericReset+0x84>)
   80a32:	601a      	str	r2, [r3, #0]
   80a34:	f3bf 8f4f 	dsb	sy
   80a38:	f3bf 8f6f 	isb	sy
   80a3c:	e00f      	b.n	80a5e <xQueueGenericReset+0x72>
   80a3e:	f04f 0340 	mov.w	r3, #64	; 0x40
   80a42:	f383 8811 	msr	BASEPRI, r3
   80a46:	f3bf 8f6f 	isb	sy
   80a4a:	f3bf 8f4f 	dsb	sy
   80a4e:	e7fe      	b.n	80a4e <xQueueGenericReset+0x62>
   80a50:	f104 0010 	add.w	r0, r4, #16
   80a54:	4d07      	ldr	r5, [pc, #28]	; (80a74 <xQueueGenericReset+0x88>)
   80a56:	47a8      	blx	r5
   80a58:	f104 0024 	add.w	r0, r4, #36	; 0x24
   80a5c:	47a8      	blx	r5
   80a5e:	4b06      	ldr	r3, [pc, #24]	; (80a78 <xQueueGenericReset+0x8c>)
   80a60:	4798      	blx	r3
   80a62:	2001      	movs	r0, #1
   80a64:	bd38      	pop	{r3, r4, r5, pc}
   80a66:	bf00      	nop
   80a68:	000805c9 	.word	0x000805c9
   80a6c:	0008197d 	.word	0x0008197d
   80a70:	e000ed04 	.word	0xe000ed04
   80a74:	0008048d 	.word	0x0008048d
   80a78:	0008060d 	.word	0x0008060d

00080a7c <xQueueGenericCreate>:
   80a7c:	b5f8      	push	{r3, r4, r5, r6, r7, lr}
   80a7e:	b940      	cbnz	r0, 80a92 <xQueueGenericCreate+0x16>
   80a80:	f04f 0340 	mov.w	r3, #64	; 0x40
   80a84:	f383 8811 	msr	BASEPRI, r3
   80a88:	f3bf 8f6f 	isb	sy
   80a8c:	f3bf 8f4f 	dsb	sy
   80a90:	e7fe      	b.n	80a90 <xQueueGenericCreate+0x14>
   80a92:	4606      	mov	r6, r0
   80a94:	4617      	mov	r7, r2
   80a96:	460d      	mov	r5, r1
   80a98:	fb01 f000 	mul.w	r0, r1, r0
   80a9c:	3050      	adds	r0, #80	; 0x50
   80a9e:	4b0a      	ldr	r3, [pc, #40]	; (80ac8 <xQueueGenericCreate+0x4c>)
   80aa0:	4798      	blx	r3
   80aa2:	4604      	mov	r4, r0
   80aa4:	b168      	cbz	r0, 80ac2 <xQueueGenericCreate+0x46>
   80aa6:	b11d      	cbz	r5, 80ab0 <xQueueGenericCreate+0x34>
   80aa8:	f100 0350 	add.w	r3, r0, #80	; 0x50
   80aac:	6003      	str	r3, [r0, #0]
   80aae:	e000      	b.n	80ab2 <xQueueGenericCreate+0x36>
   80ab0:	6020      	str	r0, [r4, #0]
   80ab2:	63e6      	str	r6, [r4, #60]	; 0x3c
   80ab4:	6425      	str	r5, [r4, #64]	; 0x40
   80ab6:	2101      	movs	r1, #1
   80ab8:	4620      	mov	r0, r4
   80aba:	4b04      	ldr	r3, [pc, #16]	; (80acc <xQueueGenericCreate+0x50>)
   80abc:	4798      	blx	r3
   80abe:	f884 704c 	strb.w	r7, [r4, #76]	; 0x4c
   80ac2:	4620      	mov	r0, r4
   80ac4:	bdf8      	pop	{r3, r4, r5, r6, r7, pc}
   80ac6:	bf00      	nop
   80ac8:	0008080d 	.word	0x0008080d
   80acc:	000809ed 	.word	0x000809ed

00080ad0 <xQueueGenericSend>:
   80ad0:	e92d 4ff0 	stmdb	sp!, {r4, r5, r6, r7, r8, r9, sl, fp, lr}
   80ad4:	b085      	sub	sp, #20
   80ad6:	9201      	str	r2, [sp, #4]
   80ad8:	b198      	cbz	r0, 80b02 <xQueueGenericSend+0x32>
   80ada:	4604      	mov	r4, r0
   80adc:	b1d1      	cbz	r1, 80b14 <xQueueGenericSend+0x44>
   80ade:	2b02      	cmp	r3, #2
   80ae0:	d024      	beq.n	80b2c <xQueueGenericSend+0x5c>
   80ae2:	461e      	mov	r6, r3
   80ae4:	460f      	mov	r7, r1
   80ae6:	4b5b      	ldr	r3, [pc, #364]	; (80c54 <xQueueGenericSend+0x184>)
   80ae8:	4798      	blx	r3
   80aea:	bb58      	cbnz	r0, 80b44 <xQueueGenericSend+0x74>
   80aec:	9b01      	ldr	r3, [sp, #4]
   80aee:	b38b      	cbz	r3, 80b54 <xQueueGenericSend+0x84>
   80af0:	f04f 0340 	mov.w	r3, #64	; 0x40
   80af4:	f383 8811 	msr	BASEPRI, r3
   80af8:	f3bf 8f6f 	isb	sy
   80afc:	f3bf 8f4f 	dsb	sy
   80b00:	e7fe      	b.n	80b00 <xQueueGenericSend+0x30>
   80b02:	f04f 0340 	mov.w	r3, #64	; 0x40
   80b06:	f383 8811 	msr	BASEPRI, r3
   80b0a:	f3bf 8f6f 	isb	sy
   80b0e:	f3bf 8f4f 	dsb	sy
   80b12:	e7fe      	b.n	80b12 <xQueueGenericSend+0x42>
   80b14:	6c02      	ldr	r2, [r0, #64]	; 0x40
   80b16:	2a00      	cmp	r2, #0
   80b18:	d0e1      	beq.n	80ade <xQueueGenericSend+0xe>
   80b1a:	f04f 0340 	mov.w	r3, #64	; 0x40
   80b1e:	f383 8811 	msr	BASEPRI, r3
   80b22:	f3bf 8f6f 	isb	sy
   80b26:	f3bf 8f4f 	dsb	sy
   80b2a:	e7fe      	b.n	80b2a <xQueueGenericSend+0x5a>
   80b2c:	6be2      	ldr	r2, [r4, #60]	; 0x3c
   80b2e:	2a01      	cmp	r2, #1
   80b30:	d0d7      	beq.n	80ae2 <xQueueGenericSend+0x12>
   80b32:	f04f 0340 	mov.w	r3, #64	; 0x40
   80b36:	f383 8811 	msr	BASEPRI, r3
   80b3a:	f3bf 8f6f 	isb	sy
   80b3e:	f3bf 8f4f 	dsb	sy
   80b42:	e7fe      	b.n	80b42 <xQueueGenericSend+0x72>
   80b44:	2500      	movs	r5, #0
   80b46:	f8df 8134 	ldr.w	r8, [pc, #308]	; 80c7c <xQueueGenericSend+0x1ac>
   80b4a:	f8df a134 	ldr.w	sl, [pc, #308]	; 80c80 <xQueueGenericSend+0x1b0>
   80b4e:	f8df 9110 	ldr.w	r9, [pc, #272]	; 80c60 <xQueueGenericSend+0x190>
   80b52:	e030      	b.n	80bb6 <xQueueGenericSend+0xe6>
   80b54:	2500      	movs	r5, #0
   80b56:	e7f6      	b.n	80b46 <xQueueGenericSend+0x76>
   80b58:	4632      	mov	r2, r6
   80b5a:	4639      	mov	r1, r7
   80b5c:	4620      	mov	r0, r4
   80b5e:	4b3e      	ldr	r3, [pc, #248]	; (80c58 <xQueueGenericSend+0x188>)
   80b60:	4798      	blx	r3
   80b62:	6a63      	ldr	r3, [r4, #36]	; 0x24
   80b64:	b193      	cbz	r3, 80b8c <xQueueGenericSend+0xbc>
   80b66:	f104 0024 	add.w	r0, r4, #36	; 0x24
   80b6a:	4b3c      	ldr	r3, [pc, #240]	; (80c5c <xQueueGenericSend+0x18c>)
   80b6c:	4798      	blx	r3
   80b6e:	b138      	cbz	r0, 80b80 <xQueueGenericSend+0xb0>
   80b70:	f04f 5280 	mov.w	r2, #268435456	; 0x10000000
   80b74:	4b3a      	ldr	r3, [pc, #232]	; (80c60 <xQueueGenericSend+0x190>)
   80b76:	601a      	str	r2, [r3, #0]
   80b78:	f3bf 8f4f 	dsb	sy
   80b7c:	f3bf 8f6f 	isb	sy
   80b80:	4b38      	ldr	r3, [pc, #224]	; (80c64 <xQueueGenericSend+0x194>)
   80b82:	4798      	blx	r3
   80b84:	2001      	movs	r0, #1
   80b86:	b005      	add	sp, #20
   80b88:	e8bd 8ff0 	ldmia.w	sp!, {r4, r5, r6, r7, r8, r9, sl, fp, pc}
   80b8c:	2800      	cmp	r0, #0
   80b8e:	d0f7      	beq.n	80b80 <xQueueGenericSend+0xb0>
   80b90:	f04f 5280 	mov.w	r2, #268435456	; 0x10000000
   80b94:	4b32      	ldr	r3, [pc, #200]	; (80c60 <xQueueGenericSend+0x190>)
   80b96:	601a      	str	r2, [r3, #0]
   80b98:	f3bf 8f4f 	dsb	sy
   80b9c:	f3bf 8f6f 	isb	sy
   80ba0:	e7ee      	b.n	80b80 <xQueueGenericSend+0xb0>
   80ba2:	4b30      	ldr	r3, [pc, #192]	; (80c64 <xQueueGenericSend+0x194>)
   80ba4:	4798      	blx	r3
   80ba6:	2000      	movs	r0, #0
   80ba8:	e7ed      	b.n	80b86 <xQueueGenericSend+0xb6>
   80baa:	4620      	mov	r0, r4
   80bac:	4b2e      	ldr	r3, [pc, #184]	; (80c68 <xQueueGenericSend+0x198>)
   80bae:	4798      	blx	r3
   80bb0:	4b2e      	ldr	r3, [pc, #184]	; (80c6c <xQueueGenericSend+0x19c>)
   80bb2:	4798      	blx	r3
   80bb4:	2501      	movs	r5, #1
   80bb6:	47c0      	blx	r8
   80bb8:	6ba2      	ldr	r2, [r4, #56]	; 0x38
   80bba:	6be3      	ldr	r3, [r4, #60]	; 0x3c
   80bbc:	429a      	cmp	r2, r3
   80bbe:	d3cb      	bcc.n	80b58 <xQueueGenericSend+0x88>
   80bc0:	2e02      	cmp	r6, #2
   80bc2:	d0c9      	beq.n	80b58 <xQueueGenericSend+0x88>
   80bc4:	9b01      	ldr	r3, [sp, #4]
   80bc6:	2b00      	cmp	r3, #0
   80bc8:	d0eb      	beq.n	80ba2 <xQueueGenericSend+0xd2>
   80bca:	b90d      	cbnz	r5, 80bd0 <xQueueGenericSend+0x100>
   80bcc:	a802      	add	r0, sp, #8
   80bce:	47d0      	blx	sl
   80bd0:	4b24      	ldr	r3, [pc, #144]	; (80c64 <xQueueGenericSend+0x194>)
   80bd2:	4798      	blx	r3
   80bd4:	4b26      	ldr	r3, [pc, #152]	; (80c70 <xQueueGenericSend+0x1a0>)
   80bd6:	4798      	blx	r3
   80bd8:	47c0      	blx	r8
   80bda:	f894 3044 	ldrb.w	r3, [r4, #68]	; 0x44
   80bde:	b25b      	sxtb	r3, r3
   80be0:	f1b3 3fff 	cmp.w	r3, #4294967295
   80be4:	bf04      	itt	eq
   80be6:	2300      	moveq	r3, #0
   80be8:	f884 3044 	strbeq.w	r3, [r4, #68]	; 0x44
   80bec:	f894 3045 	ldrb.w	r3, [r4, #69]	; 0x45
   80bf0:	b25b      	sxtb	r3, r3
   80bf2:	f1b3 3fff 	cmp.w	r3, #4294967295
   80bf6:	bf04      	itt	eq
   80bf8:	2300      	moveq	r3, #0
   80bfa:	f884 3045 	strbeq.w	r3, [r4, #69]	; 0x45
   80bfe:	4b19      	ldr	r3, [pc, #100]	; (80c64 <xQueueGenericSend+0x194>)
   80c00:	4798      	blx	r3
   80c02:	a901      	add	r1, sp, #4
   80c04:	a802      	add	r0, sp, #8
   80c06:	4b1b      	ldr	r3, [pc, #108]	; (80c74 <xQueueGenericSend+0x1a4>)
   80c08:	4798      	blx	r3
   80c0a:	b9e0      	cbnz	r0, 80c46 <xQueueGenericSend+0x176>
   80c0c:	47c0      	blx	r8
   80c0e:	f8d4 b038 	ldr.w	fp, [r4, #56]	; 0x38
   80c12:	6be5      	ldr	r5, [r4, #60]	; 0x3c
   80c14:	4b13      	ldr	r3, [pc, #76]	; (80c64 <xQueueGenericSend+0x194>)
   80c16:	4798      	blx	r3
   80c18:	45ab      	cmp	fp, r5
   80c1a:	d1c6      	bne.n	80baa <xQueueGenericSend+0xda>
   80c1c:	9901      	ldr	r1, [sp, #4]
   80c1e:	f104 0010 	add.w	r0, r4, #16
   80c22:	4b15      	ldr	r3, [pc, #84]	; (80c78 <xQueueGenericSend+0x1a8>)
   80c24:	4798      	blx	r3
   80c26:	4620      	mov	r0, r4
   80c28:	4b0f      	ldr	r3, [pc, #60]	; (80c68 <xQueueGenericSend+0x198>)
   80c2a:	4798      	blx	r3
   80c2c:	4b0f      	ldr	r3, [pc, #60]	; (80c6c <xQueueGenericSend+0x19c>)
   80c2e:	4798      	blx	r3
   80c30:	2800      	cmp	r0, #0
   80c32:	d1bf      	bne.n	80bb4 <xQueueGenericSend+0xe4>
   80c34:	f04f 5380 	mov.w	r3, #268435456	; 0x10000000
   80c38:	f8c9 3000 	str.w	r3, [r9]
   80c3c:	f3bf 8f4f 	dsb	sy
   80c40:	f3bf 8f6f 	isb	sy
   80c44:	e7b6      	b.n	80bb4 <xQueueGenericSend+0xe4>
   80c46:	4620      	mov	r0, r4
   80c48:	4b07      	ldr	r3, [pc, #28]	; (80c68 <xQueueGenericSend+0x198>)
   80c4a:	4798      	blx	r3
   80c4c:	4b07      	ldr	r3, [pc, #28]	; (80c6c <xQueueGenericSend+0x19c>)
   80c4e:	4798      	blx	r3
   80c50:	2000      	movs	r0, #0
   80c52:	e798      	b.n	80b86 <xQueueGenericSend+0xb6>
   80c54:	00081abd 	.word	0x00081abd
   80c58:	000808ad 	.word	0x000808ad
   80c5c:	0008197d 	.word	0x0008197d
   80c60:	e000ed04 	.word	0xe000ed04
   80c64:	0008060d 	.word	0x0008060d
   80c68:	00080955 	.word	0x00080955
   80c6c:	000816ad 	.word	0x000816ad
   80c70:	0008155d 	.word	0x0008155d
   80c74:	00081a25 	.word	0x00081a25
   80c78:	00081901 	.word	0x00081901
   80c7c:	000805c9 	.word	0x000805c9
   80c80:	00081a0d 	.word	0x00081a0d

00080c84 <xQueueCreateMutex>:
   80c84:	b538      	push	{r3, r4, r5, lr}
   80c86:	4602      	mov	r2, r0
   80c88:	2100      	movs	r1, #0
   80c8a:	2001      	movs	r0, #1
   80c8c:	4b06      	ldr	r3, [pc, #24]	; (80ca8 <xQueueCreateMutex+0x24>)
   80c8e:	4798      	blx	r3
   80c90:	4604      	mov	r4, r0
   80c92:	b138      	cbz	r0, 80ca4 <xQueueCreateMutex+0x20>
   80c94:	2100      	movs	r1, #0
   80c96:	6041      	str	r1, [r0, #4]
   80c98:	6001      	str	r1, [r0, #0]
   80c9a:	60c1      	str	r1, [r0, #12]
   80c9c:	460b      	mov	r3, r1
   80c9e:	460a      	mov	r2, r1
   80ca0:	4d02      	ldr	r5, [pc, #8]	; (80cac <xQueueCreateMutex+0x28>)
   80ca2:	47a8      	blx	r5
   80ca4:	4620      	mov	r0, r4
   80ca6:	bd38      	pop	{r3, r4, r5, pc}
   80ca8:	00080a7d 	.word	0x00080a7d
   80cac:	00080ad1 	.word	0x00080ad1

00080cb0 <xQueueGenericSendFromISR>:
   80cb0:	e92d 43f8 	stmdb	sp!, {r3, r4, r5, r6, r7, r8, r9, lr}
   80cb4:	2800      	cmp	r0, #0
   80cb6:	d037      	beq.n	80d28 <xQueueGenericSendFromISR+0x78>
   80cb8:	4604      	mov	r4, r0
   80cba:	2900      	cmp	r1, #0
   80cbc:	d03d      	beq.n	80d3a <xQueueGenericSendFromISR+0x8a>
   80cbe:	2b02      	cmp	r3, #2
   80cc0:	d047      	beq.n	80d52 <xQueueGenericSendFromISR+0xa2>
   80cc2:	461f      	mov	r7, r3
   80cc4:	4690      	mov	r8, r2
   80cc6:	4689      	mov	r9, r1
   80cc8:	4b2f      	ldr	r3, [pc, #188]	; (80d88 <xQueueGenericSendFromISR+0xd8>)
   80cca:	4798      	blx	r3
   80ccc:	f3ef 8611 	mrs	r6, BASEPRI
   80cd0:	f04f 0340 	mov.w	r3, #64	; 0x40
   80cd4:	f383 8811 	msr	BASEPRI, r3
   80cd8:	f3bf 8f6f 	isb	sy
   80cdc:	f3bf 8f4f 	dsb	sy
   80ce0:	6ba2      	ldr	r2, [r4, #56]	; 0x38
   80ce2:	6be3      	ldr	r3, [r4, #60]	; 0x3c
   80ce4:	429a      	cmp	r2, r3
   80ce6:	d301      	bcc.n	80cec <xQueueGenericSendFromISR+0x3c>
   80ce8:	2f02      	cmp	r7, #2
   80cea:	d144      	bne.n	80d76 <xQueueGenericSendFromISR+0xc6>
   80cec:	f894 5045 	ldrb.w	r5, [r4, #69]	; 0x45
   80cf0:	b26d      	sxtb	r5, r5
   80cf2:	463a      	mov	r2, r7
   80cf4:	4649      	mov	r1, r9
   80cf6:	4620      	mov	r0, r4
   80cf8:	4b24      	ldr	r3, [pc, #144]	; (80d8c <xQueueGenericSendFromISR+0xdc>)
   80cfa:	4798      	blx	r3
   80cfc:	f1b5 3fff 	cmp.w	r5, #4294967295
   80d00:	d133      	bne.n	80d6a <xQueueGenericSendFromISR+0xba>
   80d02:	6a63      	ldr	r3, [r4, #36]	; 0x24
   80d04:	2b00      	cmp	r3, #0
   80d06:	d038      	beq.n	80d7a <xQueueGenericSendFromISR+0xca>
   80d08:	f104 0024 	add.w	r0, r4, #36	; 0x24
   80d0c:	4b20      	ldr	r3, [pc, #128]	; (80d90 <xQueueGenericSendFromISR+0xe0>)
   80d0e:	4798      	blx	r3
   80d10:	2800      	cmp	r0, #0
   80d12:	d034      	beq.n	80d7e <xQueueGenericSendFromISR+0xce>
   80d14:	f1b8 0f00 	cmp.w	r8, #0
   80d18:	d033      	beq.n	80d82 <xQueueGenericSendFromISR+0xd2>
   80d1a:	2001      	movs	r0, #1
   80d1c:	f8c8 0000 	str.w	r0, [r8]
   80d20:	f386 8811 	msr	BASEPRI, r6
   80d24:	e8bd 83f8 	ldmia.w	sp!, {r3, r4, r5, r6, r7, r8, r9, pc}
   80d28:	f04f 0340 	mov.w	r3, #64	; 0x40
   80d2c:	f383 8811 	msr	BASEPRI, r3
   80d30:	f3bf 8f6f 	isb	sy
   80d34:	f3bf 8f4f 	dsb	sy
   80d38:	e7fe      	b.n	80d38 <xQueueGenericSendFromISR+0x88>
   80d3a:	6c00      	ldr	r0, [r0, #64]	; 0x40
   80d3c:	2800      	cmp	r0, #0
   80d3e:	d0be      	beq.n	80cbe <xQueueGenericSendFromISR+0xe>
   80d40:	f04f 0340 	mov.w	r3, #64	; 0x40
   80d44:	f383 8811 	msr	BASEPRI, r3
   80d48:	f3bf 8f6f 	isb	sy
   80d4c:	f3bf 8f4f 	dsb	sy
   80d50:	e7fe      	b.n	80d50 <xQueueGenericSendFromISR+0xa0>
   80d52:	6be0      	ldr	r0, [r4, #60]	; 0x3c
   80d54:	2801      	cmp	r0, #1
   80d56:	d0b4      	beq.n	80cc2 <xQueueGenericSendFromISR+0x12>
   80d58:	f04f 0340 	mov.w	r3, #64	; 0x40
   80d5c:	f383 8811 	msr	BASEPRI, r3
   80d60:	f3bf 8f6f 	isb	sy
   80d64:	f3bf 8f4f 	dsb	sy
   80d68:	e7fe      	b.n	80d68 <xQueueGenericSendFromISR+0xb8>
   80d6a:	1c6b      	adds	r3, r5, #1
   80d6c:	b25b      	sxtb	r3, r3
   80d6e:	f884 3045 	strb.w	r3, [r4, #69]	; 0x45
   80d72:	2001      	movs	r0, #1
   80d74:	e7d4      	b.n	80d20 <xQueueGenericSendFromISR+0x70>
   80d76:	2000      	movs	r0, #0
   80d78:	e7d2      	b.n	80d20 <xQueueGenericSendFromISR+0x70>
   80d7a:	2001      	movs	r0, #1
   80d7c:	e7d0      	b.n	80d20 <xQueueGenericSendFromISR+0x70>
   80d7e:	2001      	movs	r0, #1
   80d80:	e7ce      	b.n	80d20 <xQueueGenericSendFromISR+0x70>
   80d82:	2001      	movs	r0, #1
   80d84:	e7cc      	b.n	80d20 <xQueueGenericSendFromISR+0x70>
   80d86:	bf00      	nop
   80d88:	000807b1 	.word	0x000807b1
   80d8c:	000808ad 	.word	0x000808ad
   80d90:	0008197d 	.word	0x0008197d

00080d94 <xQueueReceive>:
   80d94:	e92d 47f0 	stmdb	sp!, {r4, r5, r6, r7, r8, r9, sl, lr}
   80d98:	b084      	sub	sp, #16
   80d9a:	9201      	str	r2, [sp, #4]
   80d9c:	b180      	cbz	r0, 80dc0 <xQueueReceive+0x2c>
   80d9e:	4604      	mov	r4, r0
   80da0:	b1b9      	cbz	r1, 80dd2 <xQueueReceive+0x3e>
   80da2:	460e      	mov	r6, r1
   80da4:	4b50      	ldr	r3, [pc, #320]	; (80ee8 <xQueueReceive+0x154>)
   80da6:	4798      	blx	r3
   80da8:	b9f8      	cbnz	r0, 80dea <xQueueReceive+0x56>
   80daa:	9b01      	ldr	r3, [sp, #4]
   80dac:	b32b      	cbz	r3, 80dfa <xQueueReceive+0x66>
   80dae:	f04f 0340 	mov.w	r3, #64	; 0x40
   80db2:	f383 8811 	msr	BASEPRI, r3
   80db6:	f3bf 8f6f 	isb	sy
   80dba:	f3bf 8f4f 	dsb	sy
   80dbe:	e7fe      	b.n	80dbe <xQueueReceive+0x2a>
   80dc0:	f04f 0340 	mov.w	r3, #64	; 0x40
   80dc4:	f383 8811 	msr	BASEPRI, r3
   80dc8:	f3bf 8f6f 	isb	sy
   80dcc:	f3bf 8f4f 	dsb	sy
   80dd0:	e7fe      	b.n	80dd0 <xQueueReceive+0x3c>
   80dd2:	6c03      	ldr	r3, [r0, #64]	; 0x40
   80dd4:	2b00      	cmp	r3, #0
   80dd6:	d0e4      	beq.n	80da2 <xQueueReceive+0xe>
   80dd8:	f04f 0340 	mov.w	r3, #64	; 0x40
   80ddc:	f383 8811 	msr	BASEPRI, r3
   80de0:	f3bf 8f6f 	isb	sy
   80de4:	f3bf 8f4f 	dsb	sy
   80de8:	e7fe      	b.n	80de8 <xQueueReceive+0x54>
   80dea:	2700      	movs	r7, #0
   80dec:	f8df 8124 	ldr.w	r8, [pc, #292]	; 80f14 <xQueueReceive+0x180>
   80df0:	f8df a124 	ldr.w	sl, [pc, #292]	; 80f18 <xQueueReceive+0x184>
   80df4:	f8df 90fc 	ldr.w	r9, [pc, #252]	; 80ef4 <xQueueReceive+0x160>
   80df8:	e029      	b.n	80e4e <xQueueReceive+0xba>
   80dfa:	2700      	movs	r7, #0
   80dfc:	e7f6      	b.n	80dec <xQueueReceive+0x58>
   80dfe:	4631      	mov	r1, r6
   80e00:	4620      	mov	r0, r4
   80e02:	4b3a      	ldr	r3, [pc, #232]	; (80eec <xQueueReceive+0x158>)
   80e04:	4798      	blx	r3
   80e06:	3d01      	subs	r5, #1
   80e08:	63a5      	str	r5, [r4, #56]	; 0x38
   80e0a:	6923      	ldr	r3, [r4, #16]
   80e0c:	b163      	cbz	r3, 80e28 <xQueueReceive+0x94>
   80e0e:	f104 0010 	add.w	r0, r4, #16
   80e12:	4b37      	ldr	r3, [pc, #220]	; (80ef0 <xQueueReceive+0x15c>)
   80e14:	4798      	blx	r3
   80e16:	b138      	cbz	r0, 80e28 <xQueueReceive+0x94>
   80e18:	f04f 5280 	mov.w	r2, #268435456	; 0x10000000
   80e1c:	4b35      	ldr	r3, [pc, #212]	; (80ef4 <xQueueReceive+0x160>)
   80e1e:	601a      	str	r2, [r3, #0]
   80e20:	f3bf 8f4f 	dsb	sy
   80e24:	f3bf 8f6f 	isb	sy
   80e28:	4b33      	ldr	r3, [pc, #204]	; (80ef8 <xQueueReceive+0x164>)
   80e2a:	4798      	blx	r3
   80e2c:	2001      	movs	r0, #1
   80e2e:	b004      	add	sp, #16
   80e30:	e8bd 87f0 	ldmia.w	sp!, {r4, r5, r6, r7, r8, r9, sl, pc}
   80e34:	4b30      	ldr	r3, [pc, #192]	; (80ef8 <xQueueReceive+0x164>)
   80e36:	4798      	blx	r3
   80e38:	2000      	movs	r0, #0
   80e3a:	e7f8      	b.n	80e2e <xQueueReceive+0x9a>
   80e3c:	a802      	add	r0, sp, #8
   80e3e:	47d0      	blx	sl
   80e40:	e00e      	b.n	80e60 <xQueueReceive+0xcc>
   80e42:	4620      	mov	r0, r4
   80e44:	4b2d      	ldr	r3, [pc, #180]	; (80efc <xQueueReceive+0x168>)
   80e46:	4798      	blx	r3
   80e48:	4b2d      	ldr	r3, [pc, #180]	; (80f00 <xQueueReceive+0x16c>)
   80e4a:	4798      	blx	r3
   80e4c:	2701      	movs	r7, #1
   80e4e:	47c0      	blx	r8
   80e50:	6ba5      	ldr	r5, [r4, #56]	; 0x38
   80e52:	2d00      	cmp	r5, #0
   80e54:	d1d3      	bne.n	80dfe <xQueueReceive+0x6a>
   80e56:	9b01      	ldr	r3, [sp, #4]
   80e58:	2b00      	cmp	r3, #0
   80e5a:	d0eb      	beq.n	80e34 <xQueueReceive+0xa0>
   80e5c:	2f00      	cmp	r7, #0
   80e5e:	d0ed      	beq.n	80e3c <xQueueReceive+0xa8>
   80e60:	4b25      	ldr	r3, [pc, #148]	; (80ef8 <xQueueReceive+0x164>)
   80e62:	4798      	blx	r3
   80e64:	4b27      	ldr	r3, [pc, #156]	; (80f04 <xQueueReceive+0x170>)
   80e66:	4798      	blx	r3
   80e68:	47c0      	blx	r8
   80e6a:	f894 3044 	ldrb.w	r3, [r4, #68]	; 0x44
   80e6e:	b25b      	sxtb	r3, r3
   80e70:	f1b3 3fff 	cmp.w	r3, #4294967295
   80e74:	bf04      	itt	eq
   80e76:	2300      	moveq	r3, #0
   80e78:	f884 3044 	strbeq.w	r3, [r4, #68]	; 0x44
   80e7c:	f894 3045 	ldrb.w	r3, [r4, #69]	; 0x45
   80e80:	b25b      	sxtb	r3, r3
   80e82:	f1b3 3fff 	cmp.w	r3, #4294967295
   80e86:	bf04      	itt	eq
   80e88:	2300      	moveq	r3, #0
   80e8a:	f884 3045 	strbeq.w	r3, [r4, #69]	; 0x45
   80e8e:	4b1a      	ldr	r3, [pc, #104]	; (80ef8 <xQueueReceive+0x164>)
   80e90:	4798      	blx	r3
   80e92:	a901      	add	r1, sp, #4
   80e94:	a802      	add	r0, sp, #8
   80e96:	4b1c      	ldr	r3, [pc, #112]	; (80f08 <xQueueReceive+0x174>)
   80e98:	4798      	blx	r3
   80e9a:	b9c8      	cbnz	r0, 80ed0 <xQueueReceive+0x13c>
   80e9c:	4620      	mov	r0, r4
   80e9e:	4b1b      	ldr	r3, [pc, #108]	; (80f0c <xQueueReceive+0x178>)
   80ea0:	4798      	blx	r3
   80ea2:	2800      	cmp	r0, #0
   80ea4:	d0cd      	beq.n	80e42 <xQueueReceive+0xae>
   80ea6:	9901      	ldr	r1, [sp, #4]
   80ea8:	f104 0024 	add.w	r0, r4, #36	; 0x24
   80eac:	4b18      	ldr	r3, [pc, #96]	; (80f10 <xQueueReceive+0x17c>)
   80eae:	4798      	blx	r3
   80eb0:	4620      	mov	r0, r4
   80eb2:	4b12      	ldr	r3, [pc, #72]	; (80efc <xQueueReceive+0x168>)
   80eb4:	4798      	blx	r3
   80eb6:	4b12      	ldr	r3, [pc, #72]	; (80f00 <xQueueReceive+0x16c>)
   80eb8:	4798      	blx	r3
   80eba:	2800      	cmp	r0, #0
   80ebc:	d1c6      	bne.n	80e4c <xQueueReceive+0xb8>
   80ebe:	f04f 5380 	mov.w	r3, #268435456	; 0x10000000
   80ec2:	f8c9 3000 	str.w	r3, [r9]
   80ec6:	f3bf 8f4f 	dsb	sy
   80eca:	f3bf 8f6f 	isb	sy
   80ece:	e7bd      	b.n	80e4c <xQueueReceive+0xb8>
   80ed0:	4620      	mov	r0, r4
   80ed2:	4b0a      	ldr	r3, [pc, #40]	; (80efc <xQueueReceive+0x168>)
   80ed4:	4798      	blx	r3
   80ed6:	4b0a      	ldr	r3, [pc, #40]	; (80f00 <xQueueReceive+0x16c>)
   80ed8:	4798      	blx	r3
   80eda:	4620      	mov	r0, r4
   80edc:	4b0b      	ldr	r3, [pc, #44]	; (80f0c <xQueueReceive+0x178>)
   80ede:	4798      	blx	r3
   80ee0:	2800      	cmp	r0, #0
   80ee2:	d0b3      	beq.n	80e4c <xQueueReceive+0xb8>
   80ee4:	2000      	movs	r0, #0
   80ee6:	e7a2      	b.n	80e2e <xQueueReceive+0x9a>
   80ee8:	00081abd 	.word	0x00081abd
   80eec:	0008092d 	.word	0x0008092d
   80ef0:	0008197d 	.word	0x0008197d
   80ef4:	e000ed04 	.word	0xe000ed04
   80ef8:	0008060d 	.word	0x0008060d
   80efc:	00080955 	.word	0x00080955
   80f00:	000816ad 	.word	0x000816ad
   80f04:	0008155d 	.word	0x0008155d
   80f08:	00081a25 	.word	0x00081a25
   80f0c:	0008088d 	.word	0x0008088d
   80f10:	00081901 	.word	0x00081901
   80f14:	000805c9 	.word	0x000805c9
   80f18:	00081a0d 	.word	0x00081a0d

00080f1c <xQueueSemaphoreTake>:
   80f1c:	e92d 43f0 	stmdb	sp!, {r4, r5, r6, r7, r8, r9, lr}
   80f20:	b085      	sub	sp, #20
   80f22:	9101      	str	r1, [sp, #4]
   80f24:	b158      	cbz	r0, 80f3e <xQueueSemaphoreTake+0x22>
   80f26:	4604      	mov	r4, r0
   80f28:	6c03      	ldr	r3, [r0, #64]	; 0x40
   80f2a:	b18b      	cbz	r3, 80f50 <xQueueSemaphoreTake+0x34>
   80f2c:	f04f 0340 	mov.w	r3, #64	; 0x40
   80f30:	f383 8811 	msr	BASEPRI, r3
   80f34:	f3bf 8f6f 	isb	sy
   80f38:	f3bf 8f4f 	dsb	sy
   80f3c:	e7fe      	b.n	80f3c <xQueueSemaphoreTake+0x20>
   80f3e:	f04f 0340 	mov.w	r3, #64	; 0x40
   80f42:	f383 8811 	msr	BASEPRI, r3
   80f46:	f3bf 8f6f 	isb	sy
   80f4a:	f3bf 8f4f 	dsb	sy
   80f4e:	e7fe      	b.n	80f4e <xQueueSemaphoreTake+0x32>
   80f50:	4b5b      	ldr	r3, [pc, #364]	; (810c0 <xQueueSemaphoreTake+0x1a4>)
   80f52:	4798      	blx	r3
   80f54:	b950      	cbnz	r0, 80f6c <xQueueSemaphoreTake+0x50>
   80f56:	9b01      	ldr	r3, [sp, #4]
   80f58:	b183      	cbz	r3, 80f7c <xQueueSemaphoreTake+0x60>
   80f5a:	f04f 0340 	mov.w	r3, #64	; 0x40
   80f5e:	f383 8811 	msr	BASEPRI, r3
   80f62:	f3bf 8f6f 	isb	sy
   80f66:	f3bf 8f4f 	dsb	sy
   80f6a:	e7fe      	b.n	80f6a <xQueueSemaphoreTake+0x4e>
   80f6c:	2500      	movs	r5, #0
   80f6e:	462f      	mov	r7, r5
   80f70:	4e54      	ldr	r6, [pc, #336]	; (810c4 <xQueueSemaphoreTake+0x1a8>)
   80f72:	f8df 9184 	ldr.w	r9, [pc, #388]	; 810f8 <xQueueSemaphoreTake+0x1dc>
   80f76:	f8df 8158 	ldr.w	r8, [pc, #344]	; 810d0 <xQueueSemaphoreTake+0x1b4>
   80f7a:	e048      	b.n	8100e <xQueueSemaphoreTake+0xf2>
   80f7c:	2500      	movs	r5, #0
   80f7e:	462f      	mov	r7, r5
   80f80:	e7f6      	b.n	80f70 <xQueueSemaphoreTake+0x54>
   80f82:	3b01      	subs	r3, #1
   80f84:	63a3      	str	r3, [r4, #56]	; 0x38
   80f86:	6823      	ldr	r3, [r4, #0]
   80f88:	b913      	cbnz	r3, 80f90 <xQueueSemaphoreTake+0x74>
   80f8a:	4b4f      	ldr	r3, [pc, #316]	; (810c8 <xQueueSemaphoreTake+0x1ac>)
   80f8c:	4798      	blx	r3
   80f8e:	6060      	str	r0, [r4, #4]
   80f90:	6923      	ldr	r3, [r4, #16]
   80f92:	b163      	cbz	r3, 80fae <xQueueSemaphoreTake+0x92>
   80f94:	f104 0010 	add.w	r0, r4, #16
   80f98:	4b4c      	ldr	r3, [pc, #304]	; (810cc <xQueueSemaphoreTake+0x1b0>)
   80f9a:	4798      	blx	r3
   80f9c:	b138      	cbz	r0, 80fae <xQueueSemaphoreTake+0x92>
   80f9e:	f04f 5280 	mov.w	r2, #268435456	; 0x10000000
   80fa2:	4b4b      	ldr	r3, [pc, #300]	; (810d0 <xQueueSemaphoreTake+0x1b4>)
   80fa4:	601a      	str	r2, [r3, #0]
   80fa6:	f3bf 8f4f 	dsb	sy
   80faa:	f3bf 8f6f 	isb	sy
   80fae:	4b49      	ldr	r3, [pc, #292]	; (810d4 <xQueueSemaphoreTake+0x1b8>)
   80fb0:	4798      	blx	r3
   80fb2:	2501      	movs	r5, #1
   80fb4:	4628      	mov	r0, r5
   80fb6:	b005      	add	sp, #20
   80fb8:	e8bd 83f0 	ldmia.w	sp!, {r4, r5, r6, r7, r8, r9, pc}
   80fbc:	b145      	cbz	r5, 80fd0 <xQueueSemaphoreTake+0xb4>
   80fbe:	f04f 0340 	mov.w	r3, #64	; 0x40
   80fc2:	f383 8811 	msr	BASEPRI, r3
   80fc6:	f3bf 8f6f 	isb	sy
   80fca:	f3bf 8f4f 	dsb	sy
   80fce:	e7fe      	b.n	80fce <xQueueSemaphoreTake+0xb2>
   80fd0:	4b40      	ldr	r3, [pc, #256]	; (810d4 <xQueueSemaphoreTake+0x1b8>)
   80fd2:	4798      	blx	r3
   80fd4:	e7ee      	b.n	80fb4 <xQueueSemaphoreTake+0x98>
   80fd6:	a802      	add	r0, sp, #8
   80fd8:	47c8      	blx	r9
   80fda:	e021      	b.n	81020 <xQueueSemaphoreTake+0x104>
   80fdc:	47b0      	blx	r6
   80fde:	6860      	ldr	r0, [r4, #4]
   80fe0:	4b3d      	ldr	r3, [pc, #244]	; (810d8 <xQueueSemaphoreTake+0x1bc>)
   80fe2:	4798      	blx	r3
   80fe4:	4605      	mov	r5, r0
   80fe6:	4b3b      	ldr	r3, [pc, #236]	; (810d4 <xQueueSemaphoreTake+0x1b8>)
   80fe8:	4798      	blx	r3
   80fea:	e040      	b.n	8106e <xQueueSemaphoreTake+0x152>
   80fec:	4620      	mov	r0, r4
   80fee:	4b3b      	ldr	r3, [pc, #236]	; (810dc <xQueueSemaphoreTake+0x1c0>)
   80ff0:	4798      	blx	r3
   80ff2:	4b3b      	ldr	r3, [pc, #236]	; (810e0 <xQueueSemaphoreTake+0x1c4>)
   80ff4:	4798      	blx	r3
   80ff6:	e009      	b.n	8100c <xQueueSemaphoreTake+0xf0>
   80ff8:	4620      	mov	r0, r4
   80ffa:	4b38      	ldr	r3, [pc, #224]	; (810dc <xQueueSemaphoreTake+0x1c0>)
   80ffc:	4798      	blx	r3
   80ffe:	4b38      	ldr	r3, [pc, #224]	; (810e0 <xQueueSemaphoreTake+0x1c4>)
   81000:	4798      	blx	r3
   81002:	4620      	mov	r0, r4
   81004:	4b37      	ldr	r3, [pc, #220]	; (810e4 <xQueueSemaphoreTake+0x1c8>)
   81006:	4798      	blx	r3
   81008:	2800      	cmp	r0, #0
   8100a:	d145      	bne.n	81098 <xQueueSemaphoreTake+0x17c>
   8100c:	2701      	movs	r7, #1
   8100e:	47b0      	blx	r6
   81010:	6ba3      	ldr	r3, [r4, #56]	; 0x38
   81012:	2b00      	cmp	r3, #0
   81014:	d1b5      	bne.n	80f82 <xQueueSemaphoreTake+0x66>
   81016:	9b01      	ldr	r3, [sp, #4]
   81018:	2b00      	cmp	r3, #0
   8101a:	d0cf      	beq.n	80fbc <xQueueSemaphoreTake+0xa0>
   8101c:	2f00      	cmp	r7, #0
   8101e:	d0da      	beq.n	80fd6 <xQueueSemaphoreTake+0xba>
   81020:	4b2c      	ldr	r3, [pc, #176]	; (810d4 <xQueueSemaphoreTake+0x1b8>)
   81022:	4798      	blx	r3
   81024:	4b30      	ldr	r3, [pc, #192]	; (810e8 <xQueueSemaphoreTake+0x1cc>)
   81026:	4798      	blx	r3
   81028:	47b0      	blx	r6
   8102a:	f894 3044 	ldrb.w	r3, [r4, #68]	; 0x44
   8102e:	b25b      	sxtb	r3, r3
   81030:	f1b3 3fff 	cmp.w	r3, #4294967295
   81034:	bf04      	itt	eq
   81036:	2300      	moveq	r3, #0
   81038:	f884 3044 	strbeq.w	r3, [r4, #68]	; 0x44
   8103c:	f894 3045 	ldrb.w	r3, [r4, #69]	; 0x45
   81040:	b25b      	sxtb	r3, r3
   81042:	f1b3 3fff 	cmp.w	r3, #4294967295
   81046:	bf04      	itt	eq
   81048:	2300      	moveq	r3, #0
   8104a:	f884 3045 	strbeq.w	r3, [r4, #69]	; 0x45
   8104e:	4b21      	ldr	r3, [pc, #132]	; (810d4 <xQueueSemaphoreTake+0x1b8>)
   81050:	4798      	blx	r3
   81052:	a901      	add	r1, sp, #4
   81054:	a802      	add	r0, sp, #8
   81056:	4b25      	ldr	r3, [pc, #148]	; (810ec <xQueueSemaphoreTake+0x1d0>)
   81058:	4798      	blx	r3
   8105a:	2800      	cmp	r0, #0
   8105c:	d1cc      	bne.n	80ff8 <xQueueSemaphoreTake+0xdc>
   8105e:	4620      	mov	r0, r4
   81060:	4b20      	ldr	r3, [pc, #128]	; (810e4 <xQueueSemaphoreTake+0x1c8>)
   81062:	4798      	blx	r3
   81064:	2800      	cmp	r0, #0
   81066:	d0c1      	beq.n	80fec <xQueueSemaphoreTake+0xd0>
   81068:	6823      	ldr	r3, [r4, #0]
   8106a:	2b00      	cmp	r3, #0
   8106c:	d0b6      	beq.n	80fdc <xQueueSemaphoreTake+0xc0>
   8106e:	9901      	ldr	r1, [sp, #4]
   81070:	f104 0024 	add.w	r0, r4, #36	; 0x24
   81074:	4b1e      	ldr	r3, [pc, #120]	; (810f0 <xQueueSemaphoreTake+0x1d4>)
   81076:	4798      	blx	r3
   81078:	4620      	mov	r0, r4
   8107a:	4b18      	ldr	r3, [pc, #96]	; (810dc <xQueueSemaphoreTake+0x1c0>)
   8107c:	4798      	blx	r3
   8107e:	4b18      	ldr	r3, [pc, #96]	; (810e0 <xQueueSemaphoreTake+0x1c4>)
   81080:	4798      	blx	r3
   81082:	2800      	cmp	r0, #0
   81084:	d1c2      	bne.n	8100c <xQueueSemaphoreTake+0xf0>
   81086:	f04f 5380 	mov.w	r3, #268435456	; 0x10000000
   8108a:	f8c8 3000 	str.w	r3, [r8]
   8108e:	f3bf 8f4f 	dsb	sy
   81092:	f3bf 8f6f 	isb	sy
   81096:	e7b9      	b.n	8100c <xQueueSemaphoreTake+0xf0>
   81098:	2d00      	cmp	r5, #0
   8109a:	d08b      	beq.n	80fb4 <xQueueSemaphoreTake+0x98>
   8109c:	4b09      	ldr	r3, [pc, #36]	; (810c4 <xQueueSemaphoreTake+0x1a8>)
   8109e:	4798      	blx	r3
   810a0:	6a63      	ldr	r3, [r4, #36]	; 0x24
   810a2:	b153      	cbz	r3, 810ba <xQueueSemaphoreTake+0x19e>
   810a4:	6b23      	ldr	r3, [r4, #48]	; 0x30
   810a6:	6819      	ldr	r1, [r3, #0]
   810a8:	f1c1 0105 	rsb	r1, r1, #5
   810ac:	6860      	ldr	r0, [r4, #4]
   810ae:	4b11      	ldr	r3, [pc, #68]	; (810f4 <xQueueSemaphoreTake+0x1d8>)
   810b0:	4798      	blx	r3
   810b2:	4b08      	ldr	r3, [pc, #32]	; (810d4 <xQueueSemaphoreTake+0x1b8>)
   810b4:	4798      	blx	r3
   810b6:	2500      	movs	r5, #0
   810b8:	e77c      	b.n	80fb4 <xQueueSemaphoreTake+0x98>
   810ba:	2100      	movs	r1, #0
   810bc:	e7f6      	b.n	810ac <xQueueSemaphoreTake+0x190>
   810be:	bf00      	nop
   810c0:	00081abd 	.word	0x00081abd
   810c4:	000805c9 	.word	0x000805c9
   810c8:	00081d21 	.word	0x00081d21
   810cc:	0008197d 	.word	0x0008197d
   810d0:	e000ed04 	.word	0xe000ed04
   810d4:	0008060d 	.word	0x0008060d
   810d8:	00081add 	.word	0x00081add
   810dc:	00080955 	.word	0x00080955
   810e0:	000816ad 	.word	0x000816ad
   810e4:	0008088d 	.word	0x0008088d
   810e8:	0008155d 	.word	0x0008155d
   810ec:	00081a25 	.word	0x00081a25
   810f0:	00081901 	.word	0x00081901
   810f4:	00081c59 	.word	0x00081c59
   810f8:	00081a0d 	.word	0x00081a0d

000810fc <vQueueAddToRegistry>:
   810fc:	b410      	push	{r4}
   810fe:	4b0a      	ldr	r3, [pc, #40]	; (81128 <vQueueAddToRegistry+0x2c>)
   81100:	681b      	ldr	r3, [r3, #0]
   81102:	b14b      	cbz	r3, 81118 <vQueueAddToRegistry+0x1c>
   81104:	2301      	movs	r3, #1
   81106:	4c08      	ldr	r4, [pc, #32]	; (81128 <vQueueAddToRegistry+0x2c>)
   81108:	f854 2033 	ldr.w	r2, [r4, r3, lsl #3]
   8110c:	b12a      	cbz	r2, 8111a <vQueueAddToRegistry+0x1e>
   8110e:	3301      	adds	r3, #1
   81110:	2b08      	cmp	r3, #8
   81112:	d1f9      	bne.n	81108 <vQueueAddToRegistry+0xc>
   81114:	bc10      	pop	{r4}
   81116:	4770      	bx	lr
   81118:	2300      	movs	r3, #0
   8111a:	4a03      	ldr	r2, [pc, #12]	; (81128 <vQueueAddToRegistry+0x2c>)
   8111c:	f842 1033 	str.w	r1, [r2, r3, lsl #3]
   81120:	eb02 03c3 	add.w	r3, r2, r3, lsl #3
   81124:	6058      	str	r0, [r3, #4]
   81126:	e7f5      	b.n	81114 <vQueueAddToRegistry+0x18>
   81128:	2007c398 	.word	0x2007c398

0008112c <vQueueWaitForMessageRestricted>:
   8112c:	b570      	push	{r4, r5, r6, lr}
   8112e:	4604      	mov	r4, r0
   81130:	460d      	mov	r5, r1
   81132:	4616      	mov	r6, r2
   81134:	4b11      	ldr	r3, [pc, #68]	; (8117c <vQueueWaitForMessageRestricted+0x50>)
   81136:	4798      	blx	r3
   81138:	f894 3044 	ldrb.w	r3, [r4, #68]	; 0x44
   8113c:	b25b      	sxtb	r3, r3
   8113e:	f1b3 3fff 	cmp.w	r3, #4294967295
   81142:	bf04      	itt	eq
   81144:	2300      	moveq	r3, #0
   81146:	f884 3044 	strbeq.w	r3, [r4, #68]	; 0x44
   8114a:	f894 3045 	ldrb.w	r3, [r4, #69]	; 0x45
   8114e:	b25b      	sxtb	r3, r3
   81150:	f1b3 3fff 	cmp.w	r3, #4294967295
   81154:	bf04      	itt	eq
   81156:	2300      	moveq	r3, #0
   81158:	f884 3045 	strbeq.w	r3, [r4, #69]	; 0x45
   8115c:	4b08      	ldr	r3, [pc, #32]	; (81180 <vQueueWaitForMessageRestricted+0x54>)
   8115e:	4798      	blx	r3
   81160:	6ba3      	ldr	r3, [r4, #56]	; 0x38
   81162:	b11b      	cbz	r3, 8116c <vQueueWaitForMessageRestricted+0x40>
   81164:	4620      	mov	r0, r4
   81166:	4b07      	ldr	r3, [pc, #28]	; (81184 <vQueueWaitForMessageRestricted+0x58>)
   81168:	4798      	blx	r3
   8116a:	bd70      	pop	{r4, r5, r6, pc}
   8116c:	4632      	mov	r2, r6
   8116e:	4629      	mov	r1, r5
   81170:	f104 0024 	add.w	r0, r4, #36	; 0x24
   81174:	4b04      	ldr	r3, [pc, #16]	; (81188 <vQueueWaitForMessageRestricted+0x5c>)
   81176:	4798      	blx	r3
   81178:	e7f4      	b.n	81164 <vQueueWaitForMessageRestricted+0x38>
   8117a:	bf00      	nop
   8117c:	000805c9 	.word	0x000805c9
   81180:	0008060d 	.word	0x0008060d
   81184:	00080955 	.word	0x00080955
   81188:	00081939 	.word	0x00081939

0008118c <prvResetNextTaskUnblockTime>:
   8118c:	4b08      	ldr	r3, [pc, #32]	; (811b0 <prvResetNextTaskUnblockTime+0x24>)
   8118e:	681b      	ldr	r3, [r3, #0]
   81190:	681b      	ldr	r3, [r3, #0]
   81192:	b13b      	cbz	r3, 811a4 <prvResetNextTaskUnblockTime+0x18>
   81194:	4b06      	ldr	r3, [pc, #24]	; (811b0 <prvResetNextTaskUnblockTime+0x24>)
   81196:	681b      	ldr	r3, [r3, #0]
   81198:	68db      	ldr	r3, [r3, #12]
   8119a:	68db      	ldr	r3, [r3, #12]
   8119c:	685a      	ldr	r2, [r3, #4]
   8119e:	4b05      	ldr	r3, [pc, #20]	; (811b4 <prvResetNextTaskUnblockTime+0x28>)
   811a0:	601a      	str	r2, [r3, #0]
   811a2:	4770      	bx	lr
   811a4:	f04f 32ff 	mov.w	r2, #4294967295
   811a8:	4b02      	ldr	r3, [pc, #8]	; (811b4 <prvResetNextTaskUnblockTime+0x28>)
   811aa:	601a      	str	r2, [r3, #0]
   811ac:	4770      	bx	lr
   811ae:	bf00      	nop
   811b0:	2007c1a4 	.word	0x2007c1a4
   811b4:	2007c254 	.word	0x2007c254

000811b8 <prvIdleTask>:
   811b8:	b580      	push	{r7, lr}
   811ba:	4d16      	ldr	r5, [pc, #88]	; (81214 <prvIdleTask+0x5c>)
   811bc:	f8df 806c 	ldr.w	r8, [pc, #108]	; 8122c <prvIdleTask+0x74>
   811c0:	4f15      	ldr	r7, [pc, #84]	; (81218 <prvIdleTask+0x60>)
   811c2:	f8df 906c 	ldr.w	r9, [pc, #108]	; 81230 <prvIdleTask+0x78>
   811c6:	682b      	ldr	r3, [r5, #0]
   811c8:	b1bb      	cbz	r3, 811fa <prvIdleTask+0x42>
   811ca:	4e14      	ldr	r6, [pc, #80]	; (8121c <prvIdleTask+0x64>)
   811cc:	47c0      	blx	r8
   811ce:	68fb      	ldr	r3, [r7, #12]
   811d0:	68dc      	ldr	r4, [r3, #12]
   811d2:	1d20      	adds	r0, r4, #4
   811d4:	47b0      	blx	r6
   811d6:	4a12      	ldr	r2, [pc, #72]	; (81220 <prvIdleTask+0x68>)
   811d8:	6813      	ldr	r3, [r2, #0]
   811da:	3b01      	subs	r3, #1
   811dc:	6013      	str	r3, [r2, #0]
   811de:	682b      	ldr	r3, [r5, #0]
   811e0:	3b01      	subs	r3, #1
   811e2:	602b      	str	r3, [r5, #0]
   811e4:	4b0f      	ldr	r3, [pc, #60]	; (81224 <prvIdleTask+0x6c>)
   811e6:	4798      	blx	r3
   811e8:	6b20      	ldr	r0, [r4, #48]	; 0x30
   811ea:	f8df a048 	ldr.w	sl, [pc, #72]	; 81234 <prvIdleTask+0x7c>
   811ee:	47d0      	blx	sl
   811f0:	4620      	mov	r0, r4
   811f2:	47d0      	blx	sl
   811f4:	682b      	ldr	r3, [r5, #0]
   811f6:	2b00      	cmp	r3, #0
   811f8:	d1e8      	bne.n	811cc <prvIdleTask+0x14>
   811fa:	4b0b      	ldr	r3, [pc, #44]	; (81228 <prvIdleTask+0x70>)
   811fc:	681b      	ldr	r3, [r3, #0]
   811fe:	2b01      	cmp	r3, #1
   81200:	d9e1      	bls.n	811c6 <prvIdleTask+0xe>
   81202:	f04f 5380 	mov.w	r3, #268435456	; 0x10000000
   81206:	f8c9 3000 	str.w	r3, [r9]
   8120a:	f3bf 8f4f 	dsb	sy
   8120e:	f3bf 8f6f 	isb	sy
   81212:	e7d8      	b.n	811c6 <prvIdleTask+0xe>
   81214:	2007c214 	.word	0x2007c214
   81218:	2007c288 	.word	0x2007c288
   8121c:	000804f5 	.word	0x000804f5
   81220:	2007c210 	.word	0x2007c210
   81224:	0008060d 	.word	0x0008060d
   81228:	2007c1ac 	.word	0x2007c1ac
   8122c:	000805c9 	.word	0x000805c9
   81230:	e000ed04 	.word	0xe000ed04
   81234:	00080875 	.word	0x00080875

00081238 <prvAddCurrentTaskToDelayedList>:
   81238:	b570      	push	{r4, r5, r6, lr}
   8123a:	4604      	mov	r4, r0
   8123c:	460e      	mov	r6, r1
   8123e:	4b1d      	ldr	r3, [pc, #116]	; (812b4 <prvAddCurrentTaskToDelayedList+0x7c>)
   81240:	681d      	ldr	r5, [r3, #0]
   81242:	4b1d      	ldr	r3, [pc, #116]	; (812b8 <prvAddCurrentTaskToDelayedList+0x80>)
   81244:	6818      	ldr	r0, [r3, #0]
   81246:	3004      	adds	r0, #4
   81248:	4b1c      	ldr	r3, [pc, #112]	; (812bc <prvAddCurrentTaskToDelayedList+0x84>)
   8124a:	4798      	blx	r3
   8124c:	b948      	cbnz	r0, 81262 <prvAddCurrentTaskToDelayedList+0x2a>
   8124e:	4b1a      	ldr	r3, [pc, #104]	; (812b8 <prvAddCurrentTaskToDelayedList+0x80>)
   81250:	681a      	ldr	r2, [r3, #0]
   81252:	491b      	ldr	r1, [pc, #108]	; (812c0 <prvAddCurrentTaskToDelayedList+0x88>)
   81254:	680b      	ldr	r3, [r1, #0]
   81256:	6ad0      	ldr	r0, [r2, #44]	; 0x2c
   81258:	2201      	movs	r2, #1
   8125a:	4082      	lsls	r2, r0
   8125c:	ea23 0302 	bic.w	r3, r3, r2
   81260:	600b      	str	r3, [r1, #0]
   81262:	f1b4 3fff 	cmp.w	r4, #4294967295
   81266:	d013      	beq.n	81290 <prvAddCurrentTaskToDelayedList+0x58>
   81268:	442c      	add	r4, r5
   8126a:	4b13      	ldr	r3, [pc, #76]	; (812b8 <prvAddCurrentTaskToDelayedList+0x80>)
   8126c:	681b      	ldr	r3, [r3, #0]
   8126e:	605c      	str	r4, [r3, #4]
   81270:	42a5      	cmp	r5, r4
   81272:	d816      	bhi.n	812a2 <prvAddCurrentTaskToDelayedList+0x6a>
   81274:	4b13      	ldr	r3, [pc, #76]	; (812c4 <prvAddCurrentTaskToDelayedList+0x8c>)
   81276:	6818      	ldr	r0, [r3, #0]
   81278:	4b0f      	ldr	r3, [pc, #60]	; (812b8 <prvAddCurrentTaskToDelayedList+0x80>)
   8127a:	6819      	ldr	r1, [r3, #0]
   8127c:	3104      	adds	r1, #4
   8127e:	4b12      	ldr	r3, [pc, #72]	; (812c8 <prvAddCurrentTaskToDelayedList+0x90>)
   81280:	4798      	blx	r3
   81282:	4b12      	ldr	r3, [pc, #72]	; (812cc <prvAddCurrentTaskToDelayedList+0x94>)
   81284:	681b      	ldr	r3, [r3, #0]
   81286:	429c      	cmp	r4, r3
   81288:	bf3c      	itt	cc
   8128a:	4b10      	ldrcc	r3, [pc, #64]	; (812cc <prvAddCurrentTaskToDelayedList+0x94>)
   8128c:	601c      	strcc	r4, [r3, #0]
   8128e:	bd70      	pop	{r4, r5, r6, pc}
   81290:	2e00      	cmp	r6, #0
   81292:	d0e9      	beq.n	81268 <prvAddCurrentTaskToDelayedList+0x30>
   81294:	4b08      	ldr	r3, [pc, #32]	; (812b8 <prvAddCurrentTaskToDelayedList+0x80>)
   81296:	6819      	ldr	r1, [r3, #0]
   81298:	3104      	adds	r1, #4
   8129a:	480d      	ldr	r0, [pc, #52]	; (812d0 <prvAddCurrentTaskToDelayedList+0x98>)
   8129c:	4b0d      	ldr	r3, [pc, #52]	; (812d4 <prvAddCurrentTaskToDelayedList+0x9c>)
   8129e:	4798      	blx	r3
   812a0:	bd70      	pop	{r4, r5, r6, pc}
   812a2:	4b0d      	ldr	r3, [pc, #52]	; (812d8 <prvAddCurrentTaskToDelayedList+0xa0>)
   812a4:	6818      	ldr	r0, [r3, #0]
   812a6:	4b04      	ldr	r3, [pc, #16]	; (812b8 <prvAddCurrentTaskToDelayedList+0x80>)
   812a8:	6819      	ldr	r1, [r3, #0]
   812aa:	3104      	adds	r1, #4
   812ac:	4b06      	ldr	r3, [pc, #24]	; (812c8 <prvAddCurrentTaskToDelayedList+0x90>)
   812ae:	4798      	blx	r3
   812b0:	bd70      	pop	{r4, r5, r6, pc}
   812b2:	bf00      	nop
   812b4:	2007c29c 	.word	0x2007c29c
   812b8:	2007c1a0 	.word	0x2007c1a0
   812bc:	000804f5 	.word	0x000804f5
   812c0:	2007c224 	.word	0x2007c224
   812c4:	2007c1a4 	.word	0x2007c1a4
   812c8:	000804c1 	.word	0x000804c1
   812cc:	2007c254 	.word	0x2007c254
   812d0:	2007c274 	.word	0x2007c274
   812d4:	000804a9 	.word	0x000804a9
   812d8:	2007c1a8 	.word	0x2007c1a8

000812dc <xTaskCreate>:
   812dc:	e92d 4ff0 	stmdb	sp!, {r4, r5, r6, r7, r8, r9, sl, fp, lr}
   812e0:	b083      	sub	sp, #12
   812e2:	4683      	mov	fp, r0
   812e4:	460d      	mov	r5, r1
   812e6:	9301      	str	r3, [sp, #4]
   812e8:	f8dd a034 	ldr.w	sl, [sp, #52]	; 0x34
   812ec:	0096      	lsls	r6, r2, #2
   812ee:	4630      	mov	r0, r6
   812f0:	4b60      	ldr	r3, [pc, #384]	; (81474 <xTaskCreate+0x198>)
   812f2:	4798      	blx	r3
   812f4:	2800      	cmp	r0, #0
   812f6:	f000 808d 	beq.w	81414 <xTaskCreate+0x138>
   812fa:	4607      	mov	r7, r0
   812fc:	2060      	movs	r0, #96	; 0x60
   812fe:	4b5d      	ldr	r3, [pc, #372]	; (81474 <xTaskCreate+0x198>)
   81300:	4798      	blx	r3
   81302:	4604      	mov	r4, r0
   81304:	2800      	cmp	r0, #0
   81306:	f000 8082 	beq.w	8140e <xTaskCreate+0x132>
   8130a:	6307      	str	r7, [r0, #48]	; 0x30
   8130c:	4632      	mov	r2, r6
   8130e:	21a5      	movs	r1, #165	; 0xa5
   81310:	4638      	mov	r0, r7
   81312:	4b59      	ldr	r3, [pc, #356]	; (81478 <xTaskCreate+0x19c>)
   81314:	4798      	blx	r3
   81316:	3e04      	subs	r6, #4
   81318:	6b23      	ldr	r3, [r4, #48]	; 0x30
   8131a:	441e      	add	r6, r3
   8131c:	f026 0607 	bic.w	r6, r6, #7
   81320:	782b      	ldrb	r3, [r5, #0]
   81322:	f884 3034 	strb.w	r3, [r4, #52]	; 0x34
   81326:	782b      	ldrb	r3, [r5, #0]
   81328:	b163      	cbz	r3, 81344 <xTaskCreate+0x68>
   8132a:	462b      	mov	r3, r5
   8132c:	f104 0234 	add.w	r2, r4, #52	; 0x34
   81330:	f105 0113 	add.w	r1, r5, #19
   81334:	7858      	ldrb	r0, [r3, #1]
   81336:	f802 0f01 	strb.w	r0, [r2, #1]!
   8133a:	f813 0f01 	ldrb.w	r0, [r3, #1]!
   8133e:	b108      	cbz	r0, 81344 <xTaskCreate+0x68>
   81340:	428b      	cmp	r3, r1
   81342:	d1f7      	bne.n	81334 <xTaskCreate+0x58>
   81344:	2700      	movs	r7, #0
   81346:	f884 7047 	strb.w	r7, [r4, #71]	; 0x47
   8134a:	9d0c      	ldr	r5, [sp, #48]	; 0x30
   8134c:	2d04      	cmp	r5, #4
   8134e:	bf28      	it	cs
   81350:	2504      	movcs	r5, #4
   81352:	62e5      	str	r5, [r4, #44]	; 0x2c
   81354:	6525      	str	r5, [r4, #80]	; 0x50
   81356:	6567      	str	r7, [r4, #84]	; 0x54
   81358:	f104 0804 	add.w	r8, r4, #4
   8135c:	4640      	mov	r0, r8
   8135e:	f8df 916c 	ldr.w	r9, [pc, #364]	; 814cc <xTaskCreate+0x1f0>
   81362:	47c8      	blx	r9
   81364:	f104 0018 	add.w	r0, r4, #24
   81368:	47c8      	blx	r9
   8136a:	6124      	str	r4, [r4, #16]
   8136c:	f1c5 0505 	rsb	r5, r5, #5
   81370:	61a5      	str	r5, [r4, #24]
   81372:	6264      	str	r4, [r4, #36]	; 0x24
   81374:	65a7      	str	r7, [r4, #88]	; 0x58
   81376:	f884 705c 	strb.w	r7, [r4, #92]	; 0x5c
   8137a:	9a01      	ldr	r2, [sp, #4]
   8137c:	4659      	mov	r1, fp
   8137e:	4630      	mov	r0, r6
   81380:	4b3e      	ldr	r3, [pc, #248]	; (8147c <xTaskCreate+0x1a0>)
   81382:	4798      	blx	r3
   81384:	6020      	str	r0, [r4, #0]
   81386:	f1ba 0f00 	cmp.w	sl, #0
   8138a:	d001      	beq.n	81390 <xTaskCreate+0xb4>
   8138c:	f8ca 4000 	str.w	r4, [sl]
   81390:	4b3b      	ldr	r3, [pc, #236]	; (81480 <xTaskCreate+0x1a4>)
   81392:	4798      	blx	r3
   81394:	4a3b      	ldr	r2, [pc, #236]	; (81484 <xTaskCreate+0x1a8>)
   81396:	6813      	ldr	r3, [r2, #0]
   81398:	3301      	adds	r3, #1
   8139a:	6013      	str	r3, [r2, #0]
   8139c:	4b3a      	ldr	r3, [pc, #232]	; (81488 <xTaskCreate+0x1ac>)
   8139e:	681b      	ldr	r3, [r3, #0]
   813a0:	2b00      	cmp	r3, #0
   813a2:	d03a      	beq.n	8141a <xTaskCreate+0x13e>
   813a4:	4b39      	ldr	r3, [pc, #228]	; (8148c <xTaskCreate+0x1b0>)
   813a6:	681b      	ldr	r3, [r3, #0]
   813a8:	b93b      	cbnz	r3, 813ba <xTaskCreate+0xde>
   813aa:	4b37      	ldr	r3, [pc, #220]	; (81488 <xTaskCreate+0x1ac>)
   813ac:	681b      	ldr	r3, [r3, #0]
   813ae:	6ada      	ldr	r2, [r3, #44]	; 0x2c
   813b0:	6ae3      	ldr	r3, [r4, #44]	; 0x2c
   813b2:	429a      	cmp	r2, r3
   813b4:	bf9c      	itt	ls
   813b6:	4b34      	ldrls	r3, [pc, #208]	; (81488 <xTaskCreate+0x1ac>)
   813b8:	601c      	strls	r4, [r3, #0]
   813ba:	4a35      	ldr	r2, [pc, #212]	; (81490 <xTaskCreate+0x1b4>)
   813bc:	6813      	ldr	r3, [r2, #0]
   813be:	3301      	adds	r3, #1
   813c0:	6013      	str	r3, [r2, #0]
   813c2:	64a3      	str	r3, [r4, #72]	; 0x48
   813c4:	6ae0      	ldr	r0, [r4, #44]	; 0x2c
   813c6:	4a33      	ldr	r2, [pc, #204]	; (81494 <xTaskCreate+0x1b8>)
   813c8:	6811      	ldr	r1, [r2, #0]
   813ca:	2301      	movs	r3, #1
   813cc:	4083      	lsls	r3, r0
   813ce:	430b      	orrs	r3, r1
   813d0:	6013      	str	r3, [r2, #0]
   813d2:	eb00 0080 	add.w	r0, r0, r0, lsl #2
   813d6:	4641      	mov	r1, r8
   813d8:	4b2f      	ldr	r3, [pc, #188]	; (81498 <xTaskCreate+0x1bc>)
   813da:	eb03 0080 	add.w	r0, r3, r0, lsl #2
   813de:	4b2f      	ldr	r3, [pc, #188]	; (8149c <xTaskCreate+0x1c0>)
   813e0:	4798      	blx	r3
   813e2:	4b2f      	ldr	r3, [pc, #188]	; (814a0 <xTaskCreate+0x1c4>)
   813e4:	4798      	blx	r3
   813e6:	4b29      	ldr	r3, [pc, #164]	; (8148c <xTaskCreate+0x1b0>)
   813e8:	681b      	ldr	r3, [r3, #0]
   813ea:	2b00      	cmp	r3, #0
   813ec:	d03b      	beq.n	81466 <xTaskCreate+0x18a>
   813ee:	4b26      	ldr	r3, [pc, #152]	; (81488 <xTaskCreate+0x1ac>)
   813f0:	681b      	ldr	r3, [r3, #0]
   813f2:	6ada      	ldr	r2, [r3, #44]	; 0x2c
   813f4:	6ae3      	ldr	r3, [r4, #44]	; 0x2c
   813f6:	429a      	cmp	r2, r3
   813f8:	d239      	bcs.n	8146e <xTaskCreate+0x192>
   813fa:	f04f 5280 	mov.w	r2, #268435456	; 0x10000000
   813fe:	4b29      	ldr	r3, [pc, #164]	; (814a4 <xTaskCreate+0x1c8>)
   81400:	601a      	str	r2, [r3, #0]
   81402:	f3bf 8f4f 	dsb	sy
   81406:	f3bf 8f6f 	isb	sy
   8140a:	2001      	movs	r0, #1
   8140c:	e02c      	b.n	81468 <xTaskCreate+0x18c>
   8140e:	4638      	mov	r0, r7
   81410:	4b25      	ldr	r3, [pc, #148]	; (814a8 <xTaskCreate+0x1cc>)
   81412:	4798      	blx	r3
   81414:	f04f 30ff 	mov.w	r0, #4294967295
   81418:	e026      	b.n	81468 <xTaskCreate+0x18c>
   8141a:	4b1b      	ldr	r3, [pc, #108]	; (81488 <xTaskCreate+0x1ac>)
   8141c:	601c      	str	r4, [r3, #0]
   8141e:	6813      	ldr	r3, [r2, #0]
   81420:	2b01      	cmp	r3, #1
   81422:	d1ca      	bne.n	813ba <xTaskCreate+0xde>
   81424:	4e1c      	ldr	r6, [pc, #112]	; (81498 <xTaskCreate+0x1bc>)
   81426:	4630      	mov	r0, r6
   81428:	4d20      	ldr	r5, [pc, #128]	; (814ac <xTaskCreate+0x1d0>)
   8142a:	47a8      	blx	r5
   8142c:	f106 0014 	add.w	r0, r6, #20
   81430:	47a8      	blx	r5
   81432:	f106 0028 	add.w	r0, r6, #40	; 0x28
   81436:	47a8      	blx	r5
   81438:	f106 003c 	add.w	r0, r6, #60	; 0x3c
   8143c:	47a8      	blx	r5
   8143e:	f106 0050 	add.w	r0, r6, #80	; 0x50
   81442:	47a8      	blx	r5
   81444:	4f1a      	ldr	r7, [pc, #104]	; (814b0 <xTaskCreate+0x1d4>)
   81446:	4638      	mov	r0, r7
   81448:	47a8      	blx	r5
   8144a:	4e1a      	ldr	r6, [pc, #104]	; (814b4 <xTaskCreate+0x1d8>)
   8144c:	4630      	mov	r0, r6
   8144e:	47a8      	blx	r5
   81450:	4819      	ldr	r0, [pc, #100]	; (814b8 <xTaskCreate+0x1dc>)
   81452:	47a8      	blx	r5
   81454:	4819      	ldr	r0, [pc, #100]	; (814bc <xTaskCreate+0x1e0>)
   81456:	47a8      	blx	r5
   81458:	4819      	ldr	r0, [pc, #100]	; (814c0 <xTaskCreate+0x1e4>)
   8145a:	47a8      	blx	r5
   8145c:	4b19      	ldr	r3, [pc, #100]	; (814c4 <xTaskCreate+0x1e8>)
   8145e:	601f      	str	r7, [r3, #0]
   81460:	4b19      	ldr	r3, [pc, #100]	; (814c8 <xTaskCreate+0x1ec>)
   81462:	601e      	str	r6, [r3, #0]
   81464:	e7a9      	b.n	813ba <xTaskCreate+0xde>
   81466:	2001      	movs	r0, #1
   81468:	b003      	add	sp, #12
   8146a:	e8bd 8ff0 	ldmia.w	sp!, {r4, r5, r6, r7, r8, r9, sl, fp, pc}
   8146e:	2001      	movs	r0, #1
   81470:	e7fa      	b.n	81468 <xTaskCreate+0x18c>
   81472:	bf00      	nop
   81474:	0008080d 	.word	0x0008080d
   81478:	00082a2d 	.word	0x00082a2d
   8147c:	0008057d 	.word	0x0008057d
   81480:	000805c9 	.word	0x000805c9
   81484:	2007c210 	.word	0x2007c210
   81488:	2007c1a0 	.word	0x2007c1a0
   8148c:	2007c270 	.word	0x2007c270
   81490:	2007c220 	.word	0x2007c220
   81494:	2007c224 	.word	0x2007c224
   81498:	2007c1ac 	.word	0x2007c1ac
   8149c:	000804a9 	.word	0x000804a9
   814a0:	0008060d 	.word	0x0008060d
   814a4:	e000ed04 	.word	0xe000ed04
   814a8:	00080875 	.word	0x00080875
   814ac:	0008048d 	.word	0x0008048d
   814b0:	2007c228 	.word	0x2007c228
   814b4:	2007c23c 	.word	0x2007c23c
   814b8:	2007c25c 	.word	0x2007c25c
   814bc:	2007c288 	.word	0x2007c288
   814c0:	2007c274 	.word	0x2007c274
   814c4:	2007c1a4 	.word	0x2007c1a4
   814c8:	2007c1a8 	.word	0x2007c1a8
   814cc:	000804a3 	.word	0x000804a3

000814d0 <vTaskStartScheduler>:
   814d0:	b510      	push	{r4, lr}
   814d2:	b082      	sub	sp, #8
   814d4:	4b18      	ldr	r3, [pc, #96]	; (81538 <vTaskStartScheduler+0x68>)
   814d6:	9301      	str	r3, [sp, #4]
   814d8:	2300      	movs	r3, #0
   814da:	9300      	str	r3, [sp, #0]
   814dc:	2282      	movs	r2, #130	; 0x82
   814de:	4917      	ldr	r1, [pc, #92]	; (8153c <vTaskStartScheduler+0x6c>)
   814e0:	4817      	ldr	r0, [pc, #92]	; (81540 <vTaskStartScheduler+0x70>)
   814e2:	4c18      	ldr	r4, [pc, #96]	; (81544 <vTaskStartScheduler+0x74>)
   814e4:	47a0      	blx	r4
   814e6:	2801      	cmp	r0, #1
   814e8:	d004      	beq.n	814f4 <vTaskStartScheduler+0x24>
   814ea:	f1b0 3fff 	cmp.w	r0, #4294967295
   814ee:	d01a      	beq.n	81526 <vTaskStartScheduler+0x56>
   814f0:	b002      	add	sp, #8
   814f2:	bd10      	pop	{r4, pc}
   814f4:	4b14      	ldr	r3, [pc, #80]	; (81548 <vTaskStartScheduler+0x78>)
   814f6:	4798      	blx	r3
   814f8:	2801      	cmp	r0, #1
   814fa:	d1f6      	bne.n	814ea <vTaskStartScheduler+0x1a>
   814fc:	f04f 0340 	mov.w	r3, #64	; 0x40
   81500:	f383 8811 	msr	BASEPRI, r3
   81504:	f3bf 8f6f 	isb	sy
   81508:	f3bf 8f4f 	dsb	sy
   8150c:	f04f 32ff 	mov.w	r2, #4294967295
   81510:	4b0e      	ldr	r3, [pc, #56]	; (8154c <vTaskStartScheduler+0x7c>)
   81512:	601a      	str	r2, [r3, #0]
   81514:	2201      	movs	r2, #1
   81516:	4b0e      	ldr	r3, [pc, #56]	; (81550 <vTaskStartScheduler+0x80>)
   81518:	601a      	str	r2, [r3, #0]
   8151a:	2200      	movs	r2, #0
   8151c:	4b0d      	ldr	r3, [pc, #52]	; (81554 <vTaskStartScheduler+0x84>)
   8151e:	601a      	str	r2, [r3, #0]
   81520:	4b0d      	ldr	r3, [pc, #52]	; (81558 <vTaskStartScheduler+0x88>)
   81522:	4798      	blx	r3
   81524:	e7e4      	b.n	814f0 <vTaskStartScheduler+0x20>
   81526:	f04f 0340 	mov.w	r3, #64	; 0x40
   8152a:	f383 8811 	msr	BASEPRI, r3
   8152e:	f3bf 8f6f 	isb	sy
   81532:	f3bf 8f4f 	dsb	sy
   81536:	e7fe      	b.n	81536 <vTaskStartScheduler+0x66>
   81538:	2007c250 	.word	0x2007c250
   8153c:	00083ab4 	.word	0x00083ab4
   81540:	000811b9 	.word	0x000811b9
   81544:	000812dd 	.word	0x000812dd
   81548:	00081df9 	.word	0x00081df9
   8154c:	2007c254 	.word	0x2007c254
   81550:	2007c270 	.word	0x2007c270
   81554:	2007c29c 	.word	0x2007c29c
   81558:	000806e1 	.word	0x000806e1

0008155c <vTaskSuspendAll>:
   8155c:	4a02      	ldr	r2, [pc, #8]	; (81568 <vTaskSuspendAll+0xc>)
   8155e:	6813      	ldr	r3, [r2, #0]
   81560:	3301      	adds	r3, #1
   81562:	6013      	str	r3, [r2, #0]
   81564:	4770      	bx	lr
   81566:	bf00      	nop
   81568:	2007c21c 	.word	0x2007c21c

0008156c <xTaskGetTickCount>:
   8156c:	4b01      	ldr	r3, [pc, #4]	; (81574 <xTaskGetTickCount+0x8>)
   8156e:	6818      	ldr	r0, [r3, #0]
   81570:	4770      	bx	lr
   81572:	bf00      	nop
   81574:	2007c29c 	.word	0x2007c29c

00081578 <xTaskIncrementTick>:
   81578:	e92d 47f0 	stmdb	sp!, {r4, r5, r6, r7, r8, r9, sl, lr}
   8157c:	4b3d      	ldr	r3, [pc, #244]	; (81674 <xTaskIncrementTick+0xfc>)
   8157e:	681b      	ldr	r3, [r3, #0]
   81580:	2b00      	cmp	r3, #0
   81582:	d169      	bne.n	81658 <xTaskIncrementTick+0xe0>
   81584:	4b3c      	ldr	r3, [pc, #240]	; (81678 <xTaskIncrementTick+0x100>)
   81586:	681d      	ldr	r5, [r3, #0]
   81588:	3501      	adds	r5, #1
   8158a:	601d      	str	r5, [r3, #0]
   8158c:	b9c5      	cbnz	r5, 815c0 <xTaskIncrementTick+0x48>
   8158e:	4b3b      	ldr	r3, [pc, #236]	; (8167c <xTaskIncrementTick+0x104>)
   81590:	681b      	ldr	r3, [r3, #0]
   81592:	681b      	ldr	r3, [r3, #0]
   81594:	b143      	cbz	r3, 815a8 <xTaskIncrementTick+0x30>
   81596:	f04f 0340 	mov.w	r3, #64	; 0x40
   8159a:	f383 8811 	msr	BASEPRI, r3
   8159e:	f3bf 8f6f 	isb	sy
   815a2:	f3bf 8f4f 	dsb	sy
   815a6:	e7fe      	b.n	815a6 <xTaskIncrementTick+0x2e>
   815a8:	4a34      	ldr	r2, [pc, #208]	; (8167c <xTaskIncrementTick+0x104>)
   815aa:	6811      	ldr	r1, [r2, #0]
   815ac:	4b34      	ldr	r3, [pc, #208]	; (81680 <xTaskIncrementTick+0x108>)
   815ae:	6818      	ldr	r0, [r3, #0]
   815b0:	6010      	str	r0, [r2, #0]
   815b2:	6019      	str	r1, [r3, #0]
   815b4:	4a33      	ldr	r2, [pc, #204]	; (81684 <xTaskIncrementTick+0x10c>)
   815b6:	6813      	ldr	r3, [r2, #0]
   815b8:	3301      	adds	r3, #1
   815ba:	6013      	str	r3, [r2, #0]
   815bc:	4b32      	ldr	r3, [pc, #200]	; (81688 <xTaskIncrementTick+0x110>)
   815be:	4798      	blx	r3
   815c0:	4b32      	ldr	r3, [pc, #200]	; (8168c <xTaskIncrementTick+0x114>)
   815c2:	681b      	ldr	r3, [r3, #0]
   815c4:	429d      	cmp	r5, r3
   815c6:	d20c      	bcs.n	815e2 <xTaskIncrementTick+0x6a>
   815c8:	2400      	movs	r4, #0
   815ca:	4b31      	ldr	r3, [pc, #196]	; (81690 <xTaskIncrementTick+0x118>)
   815cc:	681b      	ldr	r3, [r3, #0]
   815ce:	6adb      	ldr	r3, [r3, #44]	; 0x2c
   815d0:	eb03 0383 	add.w	r3, r3, r3, lsl #2
   815d4:	009b      	lsls	r3, r3, #2
   815d6:	4a2f      	ldr	r2, [pc, #188]	; (81694 <xTaskIncrementTick+0x11c>)
   815d8:	58d3      	ldr	r3, [r2, r3]
   815da:	2b02      	cmp	r3, #2
   815dc:	bf28      	it	cs
   815de:	2401      	movcs	r4, #1
   815e0:	e03f      	b.n	81662 <xTaskIncrementTick+0xea>
   815e2:	2400      	movs	r4, #0
   815e4:	f8df 9094 	ldr.w	r9, [pc, #148]	; 8167c <xTaskIncrementTick+0x104>
   815e8:	f8df 80bc 	ldr.w	r8, [pc, #188]	; 816a8 <xTaskIncrementTick+0x130>
   815ec:	4f2a      	ldr	r7, [pc, #168]	; (81698 <xTaskIncrementTick+0x120>)
   815ee:	e01f      	b.n	81630 <xTaskIncrementTick+0xb8>
   815f0:	f04f 32ff 	mov.w	r2, #4294967295
   815f4:	4b25      	ldr	r3, [pc, #148]	; (8168c <xTaskIncrementTick+0x114>)
   815f6:	601a      	str	r2, [r3, #0]
   815f8:	e7e7      	b.n	815ca <xTaskIncrementTick+0x52>
   815fa:	4a24      	ldr	r2, [pc, #144]	; (8168c <xTaskIncrementTick+0x114>)
   815fc:	6013      	str	r3, [r2, #0]
   815fe:	e7e4      	b.n	815ca <xTaskIncrementTick+0x52>
   81600:	f106 0018 	add.w	r0, r6, #24
   81604:	47c0      	blx	r8
   81606:	6af0      	ldr	r0, [r6, #44]	; 0x2c
   81608:	683a      	ldr	r2, [r7, #0]
   8160a:	2301      	movs	r3, #1
   8160c:	4083      	lsls	r3, r0
   8160e:	4313      	orrs	r3, r2
   81610:	603b      	str	r3, [r7, #0]
   81612:	eb00 0080 	add.w	r0, r0, r0, lsl #2
   81616:	4651      	mov	r1, sl
   81618:	4b1e      	ldr	r3, [pc, #120]	; (81694 <xTaskIncrementTick+0x11c>)
   8161a:	eb03 0080 	add.w	r0, r3, r0, lsl #2
   8161e:	4b1f      	ldr	r3, [pc, #124]	; (8169c <xTaskIncrementTick+0x124>)
   81620:	4798      	blx	r3
   81622:	4b1b      	ldr	r3, [pc, #108]	; (81690 <xTaskIncrementTick+0x118>)
   81624:	681b      	ldr	r3, [r3, #0]
   81626:	6af2      	ldr	r2, [r6, #44]	; 0x2c
   81628:	6adb      	ldr	r3, [r3, #44]	; 0x2c
   8162a:	429a      	cmp	r2, r3
   8162c:	bf28      	it	cs
   8162e:	2401      	movcs	r4, #1
   81630:	f8d9 3000 	ldr.w	r3, [r9]
   81634:	681b      	ldr	r3, [r3, #0]
   81636:	2b00      	cmp	r3, #0
   81638:	d0da      	beq.n	815f0 <xTaskIncrementTick+0x78>
   8163a:	f8d9 3000 	ldr.w	r3, [r9]
   8163e:	68db      	ldr	r3, [r3, #12]
   81640:	68de      	ldr	r6, [r3, #12]
   81642:	6873      	ldr	r3, [r6, #4]
   81644:	429d      	cmp	r5, r3
   81646:	d3d8      	bcc.n	815fa <xTaskIncrementTick+0x82>
   81648:	f106 0a04 	add.w	sl, r6, #4
   8164c:	4650      	mov	r0, sl
   8164e:	47c0      	blx	r8
   81650:	6ab3      	ldr	r3, [r6, #40]	; 0x28
   81652:	2b00      	cmp	r3, #0
   81654:	d1d4      	bne.n	81600 <xTaskIncrementTick+0x88>
   81656:	e7d6      	b.n	81606 <xTaskIncrementTick+0x8e>
   81658:	4a11      	ldr	r2, [pc, #68]	; (816a0 <xTaskIncrementTick+0x128>)
   8165a:	6813      	ldr	r3, [r2, #0]
   8165c:	3301      	adds	r3, #1
   8165e:	6013      	str	r3, [r2, #0]
   81660:	2400      	movs	r4, #0
   81662:	4b10      	ldr	r3, [pc, #64]	; (816a4 <xTaskIncrementTick+0x12c>)
   81664:	681b      	ldr	r3, [r3, #0]
   81666:	2b00      	cmp	r3, #0
   81668:	bf0c      	ite	eq
   8166a:	4620      	moveq	r0, r4
   8166c:	2001      	movne	r0, #1
   8166e:	e8bd 87f0 	ldmia.w	sp!, {r4, r5, r6, r7, r8, r9, sl, pc}
   81672:	bf00      	nop
   81674:	2007c21c 	.word	0x2007c21c
   81678:	2007c29c 	.word	0x2007c29c
   8167c:	2007c1a4 	.word	0x2007c1a4
   81680:	2007c1a8 	.word	0x2007c1a8
   81684:	2007c258 	.word	0x2007c258
   81688:	0008118d 	.word	0x0008118d
   8168c:	2007c254 	.word	0x2007c254
   81690:	2007c1a0 	.word	0x2007c1a0
   81694:	2007c1ac 	.word	0x2007c1ac
   81698:	2007c224 	.word	0x2007c224
   8169c:	000804a9 	.word	0x000804a9
   816a0:	2007c218 	.word	0x2007c218
   816a4:	2007c2a0 	.word	0x2007c2a0
   816a8:	000804f5 	.word	0x000804f5

000816ac <xTaskResumeAll>:
   816ac:	4b35      	ldr	r3, [pc, #212]	; (81784 <xTaskResumeAll+0xd8>)
   816ae:	681b      	ldr	r3, [r3, #0]
   816b0:	b943      	cbnz	r3, 816c4 <xTaskResumeAll+0x18>
   816b2:	f04f 0340 	mov.w	r3, #64	; 0x40
   816b6:	f383 8811 	msr	BASEPRI, r3
   816ba:	f3bf 8f6f 	isb	sy
   816be:	f3bf 8f4f 	dsb	sy
   816c2:	e7fe      	b.n	816c2 <xTaskResumeAll+0x16>
   816c4:	e92d 41f0 	stmdb	sp!, {r4, r5, r6, r7, r8, lr}
   816c8:	4b2f      	ldr	r3, [pc, #188]	; (81788 <xTaskResumeAll+0xdc>)
   816ca:	4798      	blx	r3
   816cc:	4b2d      	ldr	r3, [pc, #180]	; (81784 <xTaskResumeAll+0xd8>)
   816ce:	681a      	ldr	r2, [r3, #0]
   816d0:	3a01      	subs	r2, #1
   816d2:	601a      	str	r2, [r3, #0]
   816d4:	681b      	ldr	r3, [r3, #0]
   816d6:	2b00      	cmp	r3, #0
   816d8:	d150      	bne.n	8177c <xTaskResumeAll+0xd0>
   816da:	4b2c      	ldr	r3, [pc, #176]	; (8178c <xTaskResumeAll+0xe0>)
   816dc:	681b      	ldr	r3, [r3, #0]
   816de:	b92b      	cbnz	r3, 816ec <xTaskResumeAll+0x40>
   816e0:	2400      	movs	r4, #0
   816e2:	4b2b      	ldr	r3, [pc, #172]	; (81790 <xTaskResumeAll+0xe4>)
   816e4:	4798      	blx	r3
   816e6:	4620      	mov	r0, r4
   816e8:	e8bd 81f0 	ldmia.w	sp!, {r4, r5, r6, r7, r8, pc}
   816ec:	2400      	movs	r4, #0
   816ee:	4f29      	ldr	r7, [pc, #164]	; (81794 <xTaskResumeAll+0xe8>)
   816f0:	4e29      	ldr	r6, [pc, #164]	; (81798 <xTaskResumeAll+0xec>)
   816f2:	4d2a      	ldr	r5, [pc, #168]	; (8179c <xTaskResumeAll+0xf0>)
   816f4:	683b      	ldr	r3, [r7, #0]
   816f6:	b303      	cbz	r3, 8173a <xTaskResumeAll+0x8e>
   816f8:	68fb      	ldr	r3, [r7, #12]
   816fa:	68dc      	ldr	r4, [r3, #12]
   816fc:	f104 0018 	add.w	r0, r4, #24
   81700:	47b0      	blx	r6
   81702:	f104 0804 	add.w	r8, r4, #4
   81706:	4640      	mov	r0, r8
   81708:	47b0      	blx	r6
   8170a:	6ae0      	ldr	r0, [r4, #44]	; 0x2c
   8170c:	682a      	ldr	r2, [r5, #0]
   8170e:	2301      	movs	r3, #1
   81710:	4083      	lsls	r3, r0
   81712:	4313      	orrs	r3, r2
   81714:	602b      	str	r3, [r5, #0]
   81716:	eb00 0080 	add.w	r0, r0, r0, lsl #2
   8171a:	4641      	mov	r1, r8
   8171c:	4b20      	ldr	r3, [pc, #128]	; (817a0 <xTaskResumeAll+0xf4>)
   8171e:	eb03 0080 	add.w	r0, r3, r0, lsl #2
   81722:	4b20      	ldr	r3, [pc, #128]	; (817a4 <xTaskResumeAll+0xf8>)
   81724:	4798      	blx	r3
   81726:	4b20      	ldr	r3, [pc, #128]	; (817a8 <xTaskResumeAll+0xfc>)
   81728:	681b      	ldr	r3, [r3, #0]
   8172a:	6ae2      	ldr	r2, [r4, #44]	; 0x2c
   8172c:	6adb      	ldr	r3, [r3, #44]	; 0x2c
   8172e:	429a      	cmp	r2, r3
   81730:	d3e0      	bcc.n	816f4 <xTaskResumeAll+0x48>
   81732:	2201      	movs	r2, #1
   81734:	4b1d      	ldr	r3, [pc, #116]	; (817ac <xTaskResumeAll+0x100>)
   81736:	601a      	str	r2, [r3, #0]
   81738:	e7dc      	b.n	816f4 <xTaskResumeAll+0x48>
   8173a:	b10c      	cbz	r4, 81740 <xTaskResumeAll+0x94>
   8173c:	4b1c      	ldr	r3, [pc, #112]	; (817b0 <xTaskResumeAll+0x104>)
   8173e:	4798      	blx	r3
   81740:	4b1c      	ldr	r3, [pc, #112]	; (817b4 <xTaskResumeAll+0x108>)
   81742:	681c      	ldr	r4, [r3, #0]
   81744:	b16c      	cbz	r4, 81762 <xTaskResumeAll+0xb6>
   81746:	4f1c      	ldr	r7, [pc, #112]	; (817b8 <xTaskResumeAll+0x10c>)
   81748:	4e18      	ldr	r6, [pc, #96]	; (817ac <xTaskResumeAll+0x100>)
   8174a:	2501      	movs	r5, #1
   8174c:	e001      	b.n	81752 <xTaskResumeAll+0xa6>
   8174e:	3c01      	subs	r4, #1
   81750:	d004      	beq.n	8175c <xTaskResumeAll+0xb0>
   81752:	47b8      	blx	r7
   81754:	2800      	cmp	r0, #0
   81756:	d0fa      	beq.n	8174e <xTaskResumeAll+0xa2>
   81758:	6035      	str	r5, [r6, #0]
   8175a:	e7f8      	b.n	8174e <xTaskResumeAll+0xa2>
   8175c:	2200      	movs	r2, #0
   8175e:	4b15      	ldr	r3, [pc, #84]	; (817b4 <xTaskResumeAll+0x108>)
   81760:	601a      	str	r2, [r3, #0]
   81762:	4b12      	ldr	r3, [pc, #72]	; (817ac <xTaskResumeAll+0x100>)
   81764:	681b      	ldr	r3, [r3, #0]
   81766:	b15b      	cbz	r3, 81780 <xTaskResumeAll+0xd4>
   81768:	f04f 5280 	mov.w	r2, #268435456	; 0x10000000
   8176c:	4b13      	ldr	r3, [pc, #76]	; (817bc <xTaskResumeAll+0x110>)
   8176e:	601a      	str	r2, [r3, #0]
   81770:	f3bf 8f4f 	dsb	sy
   81774:	f3bf 8f6f 	isb	sy
   81778:	2401      	movs	r4, #1
   8177a:	e7b2      	b.n	816e2 <xTaskResumeAll+0x36>
   8177c:	2400      	movs	r4, #0
   8177e:	e7b0      	b.n	816e2 <xTaskResumeAll+0x36>
   81780:	2400      	movs	r4, #0
   81782:	e7ae      	b.n	816e2 <xTaskResumeAll+0x36>
   81784:	2007c21c 	.word	0x2007c21c
   81788:	000805c9 	.word	0x000805c9
   8178c:	2007c210 	.word	0x2007c210
   81790:	0008060d 	.word	0x0008060d
   81794:	2007c25c 	.word	0x2007c25c
   81798:	000804f5 	.word	0x000804f5
   8179c:	2007c224 	.word	0x2007c224
   817a0:	2007c1ac 	.word	0x2007c1ac
   817a4:	000804a9 	.word	0x000804a9
   817a8:	2007c1a0 	.word	0x2007c1a0
   817ac:	2007c2a0 	.word	0x2007c2a0
   817b0:	0008118d 	.word	0x0008118d
   817b4:	2007c218 	.word	0x2007c218
   817b8:	00081579 	.word	0x00081579
   817bc:	e000ed04 	.word	0xe000ed04

000817c0 <vTaskDelayUntil>:
   817c0:	b538      	push	{r3, r4, r5, lr}
   817c2:	b150      	cbz	r0, 817da <vTaskDelayUntil+0x1a>
   817c4:	4605      	mov	r5, r0
   817c6:	b989      	cbnz	r1, 817ec <vTaskDelayUntil+0x2c>
   817c8:	f04f 0340 	mov.w	r3, #64	; 0x40
   817cc:	f383 8811 	msr	BASEPRI, r3
   817d0:	f3bf 8f6f 	isb	sy
   817d4:	f3bf 8f4f 	dsb	sy
   817d8:	e7fe      	b.n	817d8 <vTaskDelayUntil+0x18>
   817da:	f04f 0340 	mov.w	r3, #64	; 0x40
   817de:	f383 8811 	msr	BASEPRI, r3
   817e2:	f3bf 8f6f 	isb	sy
   817e6:	f3bf 8f4f 	dsb	sy
   817ea:	e7fe      	b.n	817ea <vTaskDelayUntil+0x2a>
   817ec:	4b19      	ldr	r3, [pc, #100]	; (81854 <vTaskDelayUntil+0x94>)
   817ee:	681b      	ldr	r3, [r3, #0]
   817f0:	b143      	cbz	r3, 81804 <vTaskDelayUntil+0x44>
   817f2:	f04f 0340 	mov.w	r3, #64	; 0x40
   817f6:	f383 8811 	msr	BASEPRI, r3
   817fa:	f3bf 8f6f 	isb	sy
   817fe:	f3bf 8f4f 	dsb	sy
   81802:	e7fe      	b.n	81802 <vTaskDelayUntil+0x42>
   81804:	460c      	mov	r4, r1
   81806:	4b14      	ldr	r3, [pc, #80]	; (81858 <vTaskDelayUntil+0x98>)
   81808:	4798      	blx	r3
   8180a:	4b14      	ldr	r3, [pc, #80]	; (8185c <vTaskDelayUntil+0x9c>)
   8180c:	6818      	ldr	r0, [r3, #0]
   8180e:	682a      	ldr	r2, [r5, #0]
   81810:	4414      	add	r4, r2
   81812:	4290      	cmp	r0, r2
   81814:	d214      	bcs.n	81840 <vTaskDelayUntil+0x80>
   81816:	42a2      	cmp	r2, r4
   81818:	d916      	bls.n	81848 <vTaskDelayUntil+0x88>
   8181a:	602c      	str	r4, [r5, #0]
   8181c:	42a0      	cmp	r0, r4
   8181e:	d203      	bcs.n	81828 <vTaskDelayUntil+0x68>
   81820:	2100      	movs	r1, #0
   81822:	1a20      	subs	r0, r4, r0
   81824:	4b0e      	ldr	r3, [pc, #56]	; (81860 <vTaskDelayUntil+0xa0>)
   81826:	4798      	blx	r3
   81828:	4b0e      	ldr	r3, [pc, #56]	; (81864 <vTaskDelayUntil+0xa4>)
   8182a:	4798      	blx	r3
   8182c:	b980      	cbnz	r0, 81850 <vTaskDelayUntil+0x90>
   8182e:	f04f 5280 	mov.w	r2, #268435456	; 0x10000000
   81832:	4b0d      	ldr	r3, [pc, #52]	; (81868 <vTaskDelayUntil+0xa8>)
   81834:	601a      	str	r2, [r3, #0]
   81836:	f3bf 8f4f 	dsb	sy
   8183a:	f3bf 8f6f 	isb	sy
   8183e:	bd38      	pop	{r3, r4, r5, pc}
   81840:	42a2      	cmp	r2, r4
   81842:	d803      	bhi.n	8184c <vTaskDelayUntil+0x8c>
   81844:	42a0      	cmp	r0, r4
   81846:	d301      	bcc.n	8184c <vTaskDelayUntil+0x8c>
   81848:	602c      	str	r4, [r5, #0]
   8184a:	e7ed      	b.n	81828 <vTaskDelayUntil+0x68>
   8184c:	602c      	str	r4, [r5, #0]
   8184e:	e7e7      	b.n	81820 <vTaskDelayUntil+0x60>
   81850:	bd38      	pop	{r3, r4, r5, pc}
   81852:	bf00      	nop
   81854:	2007c21c 	.word	0x2007c21c
   81858:	0008155d 	.word	0x0008155d
   8185c:	2007c29c 	.word	0x2007c29c
   81860:	00081239 	.word	0x00081239
   81864:	000816ad 	.word	0x000816ad
   81868:	e000ed04 	.word	0xe000ed04

0008186c <vTaskSwitchContext>:
   8186c:	4b1f      	ldr	r3, [pc, #124]	; (818ec <vTaskSwitchContext+0x80>)
   8186e:	681b      	ldr	r3, [r3, #0]
   81870:	b9c3      	cbnz	r3, 818a4 <vTaskSwitchContext+0x38>
   81872:	2200      	movs	r2, #0
   81874:	4b1e      	ldr	r3, [pc, #120]	; (818f0 <vTaskSwitchContext+0x84>)
   81876:	601a      	str	r2, [r3, #0]
   81878:	4b1e      	ldr	r3, [pc, #120]	; (818f4 <vTaskSwitchContext+0x88>)
   8187a:	681b      	ldr	r3, [r3, #0]
   8187c:	fab3 f383 	clz	r3, r3
   81880:	b2db      	uxtb	r3, r3
   81882:	f1c3 031f 	rsb	r3, r3, #31
   81886:	eb03 0283 	add.w	r2, r3, r3, lsl #2
   8188a:	0092      	lsls	r2, r2, #2
   8188c:	491a      	ldr	r1, [pc, #104]	; (818f8 <vTaskSwitchContext+0x8c>)
   8188e:	588a      	ldr	r2, [r1, r2]
   81890:	b962      	cbnz	r2, 818ac <vTaskSwitchContext+0x40>
   81892:	f04f 0340 	mov.w	r3, #64	; 0x40
   81896:	f383 8811 	msr	BASEPRI, r3
   8189a:	f3bf 8f6f 	isb	sy
   8189e:	f3bf 8f4f 	dsb	sy
   818a2:	e7fe      	b.n	818a2 <vTaskSwitchContext+0x36>
   818a4:	2201      	movs	r2, #1
   818a6:	4b12      	ldr	r3, [pc, #72]	; (818f0 <vTaskSwitchContext+0x84>)
   818a8:	601a      	str	r2, [r3, #0]
   818aa:	4770      	bx	lr
   818ac:	b410      	push	{r4}
   818ae:	4a12      	ldr	r2, [pc, #72]	; (818f8 <vTaskSwitchContext+0x8c>)
   818b0:	0099      	lsls	r1, r3, #2
   818b2:	18c8      	adds	r0, r1, r3
   818b4:	eb02 0080 	add.w	r0, r2, r0, lsl #2
   818b8:	6844      	ldr	r4, [r0, #4]
   818ba:	6864      	ldr	r4, [r4, #4]
   818bc:	6044      	str	r4, [r0, #4]
   818be:	4419      	add	r1, r3
   818c0:	4602      	mov	r2, r0
   818c2:	3208      	adds	r2, #8
   818c4:	4294      	cmp	r4, r2
   818c6:	d00a      	beq.n	818de <vTaskSwitchContext+0x72>
   818c8:	eb03 0383 	add.w	r3, r3, r3, lsl #2
   818cc:	4a0a      	ldr	r2, [pc, #40]	; (818f8 <vTaskSwitchContext+0x8c>)
   818ce:	eb02 0383 	add.w	r3, r2, r3, lsl #2
   818d2:	685b      	ldr	r3, [r3, #4]
   818d4:	68da      	ldr	r2, [r3, #12]
   818d6:	4b09      	ldr	r3, [pc, #36]	; (818fc <vTaskSwitchContext+0x90>)
   818d8:	601a      	str	r2, [r3, #0]
   818da:	bc10      	pop	{r4}
   818dc:	4770      	bx	lr
   818de:	6860      	ldr	r0, [r4, #4]
   818e0:	4a05      	ldr	r2, [pc, #20]	; (818f8 <vTaskSwitchContext+0x8c>)
   818e2:	eb02 0281 	add.w	r2, r2, r1, lsl #2
   818e6:	6050      	str	r0, [r2, #4]
   818e8:	e7ee      	b.n	818c8 <vTaskSwitchContext+0x5c>
   818ea:	bf00      	nop
   818ec:	2007c21c 	.word	0x2007c21c
   818f0:	2007c2a0 	.word	0x2007c2a0
   818f4:	2007c224 	.word	0x2007c224
   818f8:	2007c1ac 	.word	0x2007c1ac
   818fc:	2007c1a0 	.word	0x2007c1a0

00081900 <vTaskPlaceOnEventList>:
   81900:	b940      	cbnz	r0, 81914 <vTaskPlaceOnEventList+0x14>
   81902:	f04f 0340 	mov.w	r3, #64	; 0x40
   81906:	f383 8811 	msr	BASEPRI, r3
   8190a:	f3bf 8f6f 	isb	sy
   8190e:	f3bf 8f4f 	dsb	sy
   81912:	e7fe      	b.n	81912 <vTaskPlaceOnEventList+0x12>
   81914:	b510      	push	{r4, lr}
   81916:	460c      	mov	r4, r1
   81918:	4b04      	ldr	r3, [pc, #16]	; (8192c <vTaskPlaceOnEventList+0x2c>)
   8191a:	6819      	ldr	r1, [r3, #0]
   8191c:	3118      	adds	r1, #24
   8191e:	4b04      	ldr	r3, [pc, #16]	; (81930 <vTaskPlaceOnEventList+0x30>)
   81920:	4798      	blx	r3
   81922:	2101      	movs	r1, #1
   81924:	4620      	mov	r0, r4
   81926:	4b03      	ldr	r3, [pc, #12]	; (81934 <vTaskPlaceOnEventList+0x34>)
   81928:	4798      	blx	r3
   8192a:	bd10      	pop	{r4, pc}
   8192c:	2007c1a0 	.word	0x2007c1a0
   81930:	000804c1 	.word	0x000804c1
   81934:	00081239 	.word	0x00081239

00081938 <vTaskPlaceOnEventListRestricted>:
   81938:	b538      	push	{r3, r4, r5, lr}
   8193a:	b178      	cbz	r0, 8195c <vTaskPlaceOnEventListRestricted+0x24>
   8193c:	4614      	mov	r4, r2
   8193e:	460d      	mov	r5, r1
   81940:	4b0b      	ldr	r3, [pc, #44]	; (81970 <vTaskPlaceOnEventListRestricted+0x38>)
   81942:	6819      	ldr	r1, [r3, #0]
   81944:	3118      	adds	r1, #24
   81946:	4b0b      	ldr	r3, [pc, #44]	; (81974 <vTaskPlaceOnEventListRestricted+0x3c>)
   81948:	4798      	blx	r3
   8194a:	2c00      	cmp	r4, #0
   8194c:	4621      	mov	r1, r4
   8194e:	bf0c      	ite	eq
   81950:	4628      	moveq	r0, r5
   81952:	f04f 30ff 	movne.w	r0, #4294967295
   81956:	4b08      	ldr	r3, [pc, #32]	; (81978 <vTaskPlaceOnEventListRestricted+0x40>)
   81958:	4798      	blx	r3
   8195a:	bd38      	pop	{r3, r4, r5, pc}
   8195c:	f04f 0340 	mov.w	r3, #64	; 0x40
   81960:	f383 8811 	msr	BASEPRI, r3
   81964:	f3bf 8f6f 	isb	sy
   81968:	f3bf 8f4f 	dsb	sy
   8196c:	e7fe      	b.n	8196c <vTaskPlaceOnEventListRestricted+0x34>
   8196e:	bf00      	nop
   81970:	2007c1a0 	.word	0x2007c1a0
   81974:	000804a9 	.word	0x000804a9
   81978:	00081239 	.word	0x00081239

0008197c <xTaskRemoveFromEventList>:
   8197c:	b538      	push	{r3, r4, r5, lr}
   8197e:	68c3      	ldr	r3, [r0, #12]
   81980:	68dc      	ldr	r4, [r3, #12]
   81982:	b32c      	cbz	r4, 819d0 <xTaskRemoveFromEventList+0x54>
   81984:	f104 0518 	add.w	r5, r4, #24
   81988:	4628      	mov	r0, r5
   8198a:	4b18      	ldr	r3, [pc, #96]	; (819ec <xTaskRemoveFromEventList+0x70>)
   8198c:	4798      	blx	r3
   8198e:	4b18      	ldr	r3, [pc, #96]	; (819f0 <xTaskRemoveFromEventList+0x74>)
   81990:	681b      	ldr	r3, [r3, #0]
   81992:	bb33      	cbnz	r3, 819e2 <xTaskRemoveFromEventList+0x66>
   81994:	1d25      	adds	r5, r4, #4
   81996:	4628      	mov	r0, r5
   81998:	4b14      	ldr	r3, [pc, #80]	; (819ec <xTaskRemoveFromEventList+0x70>)
   8199a:	4798      	blx	r3
   8199c:	6ae0      	ldr	r0, [r4, #44]	; 0x2c
   8199e:	4a15      	ldr	r2, [pc, #84]	; (819f4 <xTaskRemoveFromEventList+0x78>)
   819a0:	6811      	ldr	r1, [r2, #0]
   819a2:	2301      	movs	r3, #1
   819a4:	4083      	lsls	r3, r0
   819a6:	430b      	orrs	r3, r1
   819a8:	6013      	str	r3, [r2, #0]
   819aa:	eb00 0080 	add.w	r0, r0, r0, lsl #2
   819ae:	4629      	mov	r1, r5
   819b0:	4b11      	ldr	r3, [pc, #68]	; (819f8 <xTaskRemoveFromEventList+0x7c>)
   819b2:	eb03 0080 	add.w	r0, r3, r0, lsl #2
   819b6:	4b11      	ldr	r3, [pc, #68]	; (819fc <xTaskRemoveFromEventList+0x80>)
   819b8:	4798      	blx	r3
   819ba:	4b11      	ldr	r3, [pc, #68]	; (81a00 <xTaskRemoveFromEventList+0x84>)
   819bc:	681b      	ldr	r3, [r3, #0]
   819be:	6ae2      	ldr	r2, [r4, #44]	; 0x2c
   819c0:	6adb      	ldr	r3, [r3, #44]	; 0x2c
   819c2:	429a      	cmp	r2, r3
   819c4:	bf83      	ittte	hi
   819c6:	2001      	movhi	r0, #1
   819c8:	4b0e      	ldrhi	r3, [pc, #56]	; (81a04 <xTaskRemoveFromEventList+0x88>)
   819ca:	6018      	strhi	r0, [r3, #0]
   819cc:	2000      	movls	r0, #0
   819ce:	bd38      	pop	{r3, r4, r5, pc}
   819d0:	f04f 0340 	mov.w	r3, #64	; 0x40
   819d4:	f383 8811 	msr	BASEPRI, r3
   819d8:	f3bf 8f6f 	isb	sy
   819dc:	f3bf 8f4f 	dsb	sy
   819e0:	e7fe      	b.n	819e0 <xTaskRemoveFromEventList+0x64>
   819e2:	4629      	mov	r1, r5
   819e4:	4808      	ldr	r0, [pc, #32]	; (81a08 <xTaskRemoveFromEventList+0x8c>)
   819e6:	4b05      	ldr	r3, [pc, #20]	; (819fc <xTaskRemoveFromEventList+0x80>)
   819e8:	4798      	blx	r3
   819ea:	e7e6      	b.n	819ba <xTaskRemoveFromEventList+0x3e>
   819ec:	000804f5 	.word	0x000804f5
   819f0:	2007c21c 	.word	0x2007c21c
   819f4:	2007c224 	.word	0x2007c224
   819f8:	2007c1ac 	.word	0x2007c1ac
   819fc:	000804a9 	.word	0x000804a9
   81a00:	2007c1a0 	.word	0x2007c1a0
   81a04:	2007c2a0 	.word	0x2007c2a0
   81a08:	2007c25c 	.word	0x2007c25c

00081a0c <vTaskInternalSetTimeOutState>:
   81a0c:	4b03      	ldr	r3, [pc, #12]	; (81a1c <vTaskInternalSetTimeOutState+0x10>)
   81a0e:	681b      	ldr	r3, [r3, #0]
   81a10:	6003      	str	r3, [r0, #0]
   81a12:	4b03      	ldr	r3, [pc, #12]	; (81a20 <vTaskInternalSetTimeOutState+0x14>)
   81a14:	681b      	ldr	r3, [r3, #0]
   81a16:	6043      	str	r3, [r0, #4]
   81a18:	4770      	bx	lr
   81a1a:	bf00      	nop
   81a1c:	2007c258 	.word	0x2007c258
   81a20:	2007c29c 	.word	0x2007c29c

00081a24 <xTaskCheckForTimeOut>:
   81a24:	b1e8      	cbz	r0, 81a62 <xTaskCheckForTimeOut+0x3e>
   81a26:	b570      	push	{r4, r5, r6, lr}
   81a28:	4605      	mov	r5, r0
   81a2a:	b319      	cbz	r1, 81a74 <xTaskCheckForTimeOut+0x50>
   81a2c:	460c      	mov	r4, r1
   81a2e:	4b1b      	ldr	r3, [pc, #108]	; (81a9c <xTaskCheckForTimeOut+0x78>)
   81a30:	4798      	blx	r3
   81a32:	4b1b      	ldr	r3, [pc, #108]	; (81aa0 <xTaskCheckForTimeOut+0x7c>)
   81a34:	681a      	ldr	r2, [r3, #0]
   81a36:	6869      	ldr	r1, [r5, #4]
   81a38:	6823      	ldr	r3, [r4, #0]
   81a3a:	f1b3 3fff 	cmp.w	r3, #4294967295
   81a3e:	d029      	beq.n	81a94 <xTaskCheckForTimeOut+0x70>
   81a40:	4818      	ldr	r0, [pc, #96]	; (81aa4 <xTaskCheckForTimeOut+0x80>)
   81a42:	6800      	ldr	r0, [r0, #0]
   81a44:	682e      	ldr	r6, [r5, #0]
   81a46:	4286      	cmp	r6, r0
   81a48:	d001      	beq.n	81a4e <xTaskCheckForTimeOut+0x2a>
   81a4a:	428a      	cmp	r2, r1
   81a4c:	d224      	bcs.n	81a98 <xTaskCheckForTimeOut+0x74>
   81a4e:	1a52      	subs	r2, r2, r1
   81a50:	429a      	cmp	r2, r3
   81a52:	d318      	bcc.n	81a86 <xTaskCheckForTimeOut+0x62>
   81a54:	2300      	movs	r3, #0
   81a56:	6023      	str	r3, [r4, #0]
   81a58:	2401      	movs	r4, #1
   81a5a:	4b13      	ldr	r3, [pc, #76]	; (81aa8 <xTaskCheckForTimeOut+0x84>)
   81a5c:	4798      	blx	r3
   81a5e:	4620      	mov	r0, r4
   81a60:	bd70      	pop	{r4, r5, r6, pc}
   81a62:	f04f 0340 	mov.w	r3, #64	; 0x40
   81a66:	f383 8811 	msr	BASEPRI, r3
   81a6a:	f3bf 8f6f 	isb	sy
   81a6e:	f3bf 8f4f 	dsb	sy
   81a72:	e7fe      	b.n	81a72 <xTaskCheckForTimeOut+0x4e>
   81a74:	f04f 0340 	mov.w	r3, #64	; 0x40
   81a78:	f383 8811 	msr	BASEPRI, r3
   81a7c:	f3bf 8f6f 	isb	sy
   81a80:	f3bf 8f4f 	dsb	sy
   81a84:	e7fe      	b.n	81a84 <xTaskCheckForTimeOut+0x60>
   81a86:	1a9b      	subs	r3, r3, r2
   81a88:	6023      	str	r3, [r4, #0]
   81a8a:	4628      	mov	r0, r5
   81a8c:	4b07      	ldr	r3, [pc, #28]	; (81aac <xTaskCheckForTimeOut+0x88>)
   81a8e:	4798      	blx	r3
   81a90:	2400      	movs	r4, #0
   81a92:	e7e2      	b.n	81a5a <xTaskCheckForTimeOut+0x36>
   81a94:	2400      	movs	r4, #0
   81a96:	e7e0      	b.n	81a5a <xTaskCheckForTimeOut+0x36>
   81a98:	2401      	movs	r4, #1
   81a9a:	e7de      	b.n	81a5a <xTaskCheckForTimeOut+0x36>
   81a9c:	000805c9 	.word	0x000805c9
   81aa0:	2007c29c 	.word	0x2007c29c
   81aa4:	2007c258 	.word	0x2007c258
   81aa8:	0008060d 	.word	0x0008060d
   81aac:	00081a0d 	.word	0x00081a0d

00081ab0 <vTaskMissedYield>:
   81ab0:	2201      	movs	r2, #1
   81ab2:	4b01      	ldr	r3, [pc, #4]	; (81ab8 <vTaskMissedYield+0x8>)
   81ab4:	601a      	str	r2, [r3, #0]
   81ab6:	4770      	bx	lr
   81ab8:	2007c2a0 	.word	0x2007c2a0

00081abc <xTaskGetSchedulerState>:
   81abc:	4b05      	ldr	r3, [pc, #20]	; (81ad4 <xTaskGetSchedulerState+0x18>)
   81abe:	681b      	ldr	r3, [r3, #0]
   81ac0:	b133      	cbz	r3, 81ad0 <xTaskGetSchedulerState+0x14>
   81ac2:	4b05      	ldr	r3, [pc, #20]	; (81ad8 <xTaskGetSchedulerState+0x1c>)
   81ac4:	681b      	ldr	r3, [r3, #0]
   81ac6:	2b00      	cmp	r3, #0
   81ac8:	bf0c      	ite	eq
   81aca:	2002      	moveq	r0, #2
   81acc:	2000      	movne	r0, #0
   81ace:	4770      	bx	lr
   81ad0:	2001      	movs	r0, #1
   81ad2:	4770      	bx	lr
   81ad4:	2007c270 	.word	0x2007c270
   81ad8:	2007c21c 	.word	0x2007c21c

00081adc <xTaskPriorityInherit>:
   81adc:	2800      	cmp	r0, #0
   81ade:	d050      	beq.n	81b82 <xTaskPriorityInherit+0xa6>
   81ae0:	b538      	push	{r3, r4, r5, lr}
   81ae2:	4604      	mov	r4, r0
   81ae4:	6ac2      	ldr	r2, [r0, #44]	; 0x2c
   81ae6:	4928      	ldr	r1, [pc, #160]	; (81b88 <xTaskPriorityInherit+0xac>)
   81ae8:	6809      	ldr	r1, [r1, #0]
   81aea:	6ac9      	ldr	r1, [r1, #44]	; 0x2c
   81aec:	428a      	cmp	r2, r1
   81aee:	d23f      	bcs.n	81b70 <xTaskPriorityInherit+0x94>
   81af0:	6981      	ldr	r1, [r0, #24]
   81af2:	2900      	cmp	r1, #0
   81af4:	db05      	blt.n	81b02 <xTaskPriorityInherit+0x26>
   81af6:	4924      	ldr	r1, [pc, #144]	; (81b88 <xTaskPriorityInherit+0xac>)
   81af8:	6809      	ldr	r1, [r1, #0]
   81afa:	6ac9      	ldr	r1, [r1, #44]	; 0x2c
   81afc:	f1c1 0105 	rsb	r1, r1, #5
   81b00:	6181      	str	r1, [r0, #24]
   81b02:	eb02 0282 	add.w	r2, r2, r2, lsl #2
   81b06:	4921      	ldr	r1, [pc, #132]	; (81b8c <xTaskPriorityInherit+0xb0>)
   81b08:	eb01 0282 	add.w	r2, r1, r2, lsl #2
   81b0c:	6961      	ldr	r1, [r4, #20]
   81b0e:	4291      	cmp	r1, r2
   81b10:	d005      	beq.n	81b1e <xTaskPriorityInherit+0x42>
   81b12:	4a1d      	ldr	r2, [pc, #116]	; (81b88 <xTaskPriorityInherit+0xac>)
   81b14:	6812      	ldr	r2, [r2, #0]
   81b16:	6ad2      	ldr	r2, [r2, #44]	; 0x2c
   81b18:	62e2      	str	r2, [r4, #44]	; 0x2c
   81b1a:	2001      	movs	r0, #1
   81b1c:	bd38      	pop	{r3, r4, r5, pc}
   81b1e:	1d25      	adds	r5, r4, #4
   81b20:	4628      	mov	r0, r5
   81b22:	4b1b      	ldr	r3, [pc, #108]	; (81b90 <xTaskPriorityInherit+0xb4>)
   81b24:	4798      	blx	r3
   81b26:	b970      	cbnz	r0, 81b46 <xTaskPriorityInherit+0x6a>
   81b28:	6ae2      	ldr	r2, [r4, #44]	; 0x2c
   81b2a:	eb02 0382 	add.w	r3, r2, r2, lsl #2
   81b2e:	009b      	lsls	r3, r3, #2
   81b30:	4916      	ldr	r1, [pc, #88]	; (81b8c <xTaskPriorityInherit+0xb0>)
   81b32:	58cb      	ldr	r3, [r1, r3]
   81b34:	b93b      	cbnz	r3, 81b46 <xTaskPriorityInherit+0x6a>
   81b36:	4817      	ldr	r0, [pc, #92]	; (81b94 <xTaskPriorityInherit+0xb8>)
   81b38:	6803      	ldr	r3, [r0, #0]
   81b3a:	2101      	movs	r1, #1
   81b3c:	fa01 f202 	lsl.w	r2, r1, r2
   81b40:	ea23 0202 	bic.w	r2, r3, r2
   81b44:	6002      	str	r2, [r0, #0]
   81b46:	4b10      	ldr	r3, [pc, #64]	; (81b88 <xTaskPriorityInherit+0xac>)
   81b48:	681b      	ldr	r3, [r3, #0]
   81b4a:	6ad8      	ldr	r0, [r3, #44]	; 0x2c
   81b4c:	62e0      	str	r0, [r4, #44]	; 0x2c
   81b4e:	4a11      	ldr	r2, [pc, #68]	; (81b94 <xTaskPriorityInherit+0xb8>)
   81b50:	6811      	ldr	r1, [r2, #0]
   81b52:	2401      	movs	r4, #1
   81b54:	fa04 f300 	lsl.w	r3, r4, r0
   81b58:	430b      	orrs	r3, r1
   81b5a:	6013      	str	r3, [r2, #0]
   81b5c:	eb00 0080 	add.w	r0, r0, r0, lsl #2
   81b60:	4629      	mov	r1, r5
   81b62:	4b0a      	ldr	r3, [pc, #40]	; (81b8c <xTaskPriorityInherit+0xb0>)
   81b64:	eb03 0080 	add.w	r0, r3, r0, lsl #2
   81b68:	4b0b      	ldr	r3, [pc, #44]	; (81b98 <xTaskPriorityInherit+0xbc>)
   81b6a:	4798      	blx	r3
   81b6c:	4620      	mov	r0, r4
   81b6e:	bd38      	pop	{r3, r4, r5, pc}
   81b70:	4a05      	ldr	r2, [pc, #20]	; (81b88 <xTaskPriorityInherit+0xac>)
   81b72:	6812      	ldr	r2, [r2, #0]
   81b74:	6d00      	ldr	r0, [r0, #80]	; 0x50
   81b76:	6ad3      	ldr	r3, [r2, #44]	; 0x2c
   81b78:	4298      	cmp	r0, r3
   81b7a:	bf2c      	ite	cs
   81b7c:	2000      	movcs	r0, #0
   81b7e:	2001      	movcc	r0, #1
   81b80:	bd38      	pop	{r3, r4, r5, pc}
   81b82:	2000      	movs	r0, #0
   81b84:	4770      	bx	lr
   81b86:	bf00      	nop
   81b88:	2007c1a0 	.word	0x2007c1a0
   81b8c:	2007c1ac 	.word	0x2007c1ac
   81b90:	000804f5 	.word	0x000804f5
   81b94:	2007c224 	.word	0x2007c224
   81b98:	000804a9 	.word	0x000804a9

00081b9c <xTaskPriorityDisinherit>:
   81b9c:	2800      	cmp	r0, #0
   81b9e:	d04a      	beq.n	81c36 <xTaskPriorityDisinherit+0x9a>
   81ba0:	b538      	push	{r3, r4, r5, lr}
   81ba2:	4604      	mov	r4, r0
   81ba4:	4a27      	ldr	r2, [pc, #156]	; (81c44 <xTaskPriorityDisinherit+0xa8>)
   81ba6:	6812      	ldr	r2, [r2, #0]
   81ba8:	4290      	cmp	r0, r2
   81baa:	d008      	beq.n	81bbe <xTaskPriorityDisinherit+0x22>
   81bac:	f04f 0340 	mov.w	r3, #64	; 0x40
   81bb0:	f383 8811 	msr	BASEPRI, r3
   81bb4:	f3bf 8f6f 	isb	sy
   81bb8:	f3bf 8f4f 	dsb	sy
   81bbc:	e7fe      	b.n	81bbc <xTaskPriorityDisinherit+0x20>
   81bbe:	6d42      	ldr	r2, [r0, #84]	; 0x54
   81bc0:	b942      	cbnz	r2, 81bd4 <xTaskPriorityDisinherit+0x38>
   81bc2:	f04f 0340 	mov.w	r3, #64	; 0x40
   81bc6:	f383 8811 	msr	BASEPRI, r3
   81bca:	f3bf 8f6f 	isb	sy
   81bce:	f3bf 8f4f 	dsb	sy
   81bd2:	e7fe      	b.n	81bd2 <xTaskPriorityDisinherit+0x36>
   81bd4:	3a01      	subs	r2, #1
   81bd6:	6542      	str	r2, [r0, #84]	; 0x54
   81bd8:	6ac0      	ldr	r0, [r0, #44]	; 0x2c
   81bda:	6d21      	ldr	r1, [r4, #80]	; 0x50
   81bdc:	4288      	cmp	r0, r1
   81bde:	d02c      	beq.n	81c3a <xTaskPriorityDisinherit+0x9e>
   81be0:	2a00      	cmp	r2, #0
   81be2:	d12c      	bne.n	81c3e <xTaskPriorityDisinherit+0xa2>
   81be4:	1d25      	adds	r5, r4, #4
   81be6:	4628      	mov	r0, r5
   81be8:	4b17      	ldr	r3, [pc, #92]	; (81c48 <xTaskPriorityDisinherit+0xac>)
   81bea:	4798      	blx	r3
   81bec:	b968      	cbnz	r0, 81c0a <xTaskPriorityDisinherit+0x6e>
   81bee:	6ae1      	ldr	r1, [r4, #44]	; 0x2c
   81bf0:	eb01 0381 	add.w	r3, r1, r1, lsl #2
   81bf4:	009b      	lsls	r3, r3, #2
   81bf6:	4a15      	ldr	r2, [pc, #84]	; (81c4c <xTaskPriorityDisinherit+0xb0>)
   81bf8:	58d3      	ldr	r3, [r2, r3]
   81bfa:	b933      	cbnz	r3, 81c0a <xTaskPriorityDisinherit+0x6e>
   81bfc:	4814      	ldr	r0, [pc, #80]	; (81c50 <xTaskPriorityDisinherit+0xb4>)
   81bfe:	6803      	ldr	r3, [r0, #0]
   81c00:	2201      	movs	r2, #1
   81c02:	408a      	lsls	r2, r1
   81c04:	ea23 0302 	bic.w	r3, r3, r2
   81c08:	6003      	str	r3, [r0, #0]
   81c0a:	6d20      	ldr	r0, [r4, #80]	; 0x50
   81c0c:	62e0      	str	r0, [r4, #44]	; 0x2c
   81c0e:	f1c0 0305 	rsb	r3, r0, #5
   81c12:	61a3      	str	r3, [r4, #24]
   81c14:	4a0e      	ldr	r2, [pc, #56]	; (81c50 <xTaskPriorityDisinherit+0xb4>)
   81c16:	6811      	ldr	r1, [r2, #0]
   81c18:	2401      	movs	r4, #1
   81c1a:	fa04 f300 	lsl.w	r3, r4, r0
   81c1e:	430b      	orrs	r3, r1
   81c20:	6013      	str	r3, [r2, #0]
   81c22:	eb00 0080 	add.w	r0, r0, r0, lsl #2
   81c26:	4629      	mov	r1, r5
   81c28:	4b08      	ldr	r3, [pc, #32]	; (81c4c <xTaskPriorityDisinherit+0xb0>)
   81c2a:	eb03 0080 	add.w	r0, r3, r0, lsl #2
   81c2e:	4b09      	ldr	r3, [pc, #36]	; (81c54 <xTaskPriorityDisinherit+0xb8>)
   81c30:	4798      	blx	r3
   81c32:	4620      	mov	r0, r4
   81c34:	bd38      	pop	{r3, r4, r5, pc}
   81c36:	2000      	movs	r0, #0
   81c38:	4770      	bx	lr
   81c3a:	2000      	movs	r0, #0
   81c3c:	bd38      	pop	{r3, r4, r5, pc}
   81c3e:	2000      	movs	r0, #0
   81c40:	bd38      	pop	{r3, r4, r5, pc}
   81c42:	bf00      	nop
   81c44:	2007c1a0 	.word	0x2007c1a0
   81c48:	000804f5 	.word	0x000804f5
   81c4c:	2007c1ac 	.word	0x2007c1ac
   81c50:	2007c224 	.word	0x2007c224
   81c54:	000804a9 	.word	0x000804a9

00081c58 <vTaskPriorityDisinheritAfterTimeout>:
   81c58:	2800      	cmp	r0, #0
   81c5a:	d055      	beq.n	81d08 <vTaskPriorityDisinheritAfterTimeout+0xb0>
   81c5c:	b538      	push	{r3, r4, r5, lr}
   81c5e:	4604      	mov	r4, r0
   81c60:	6d40      	ldr	r0, [r0, #84]	; 0x54
   81c62:	b940      	cbnz	r0, 81c76 <vTaskPriorityDisinheritAfterTimeout+0x1e>
   81c64:	f04f 0340 	mov.w	r3, #64	; 0x40
   81c68:	f383 8811 	msr	BASEPRI, r3
   81c6c:	f3bf 8f6f 	isb	sy
   81c70:	f3bf 8f4f 	dsb	sy
   81c74:	e7fe      	b.n	81c74 <vTaskPriorityDisinheritAfterTimeout+0x1c>
   81c76:	6d22      	ldr	r2, [r4, #80]	; 0x50
   81c78:	428a      	cmp	r2, r1
   81c7a:	bf38      	it	cc
   81c7c:	460a      	movcc	r2, r1
   81c7e:	6ae1      	ldr	r1, [r4, #44]	; 0x2c
   81c80:	4291      	cmp	r1, r2
   81c82:	d001      	beq.n	81c88 <vTaskPriorityDisinheritAfterTimeout+0x30>
   81c84:	2801      	cmp	r0, #1
   81c86:	d000      	beq.n	81c8a <vTaskPriorityDisinheritAfterTimeout+0x32>
   81c88:	bd38      	pop	{r3, r4, r5, pc}
   81c8a:	4820      	ldr	r0, [pc, #128]	; (81d0c <vTaskPriorityDisinheritAfterTimeout+0xb4>)
   81c8c:	6800      	ldr	r0, [r0, #0]
   81c8e:	4284      	cmp	r4, r0
   81c90:	d108      	bne.n	81ca4 <vTaskPriorityDisinheritAfterTimeout+0x4c>
   81c92:	f04f 0340 	mov.w	r3, #64	; 0x40
   81c96:	f383 8811 	msr	BASEPRI, r3
   81c9a:	f3bf 8f6f 	isb	sy
   81c9e:	f3bf 8f4f 	dsb	sy
   81ca2:	e7fe      	b.n	81ca2 <vTaskPriorityDisinheritAfterTimeout+0x4a>
   81ca4:	62e2      	str	r2, [r4, #44]	; 0x2c
   81ca6:	69a0      	ldr	r0, [r4, #24]
   81ca8:	2800      	cmp	r0, #0
   81caa:	bfa4      	itt	ge
   81cac:	f1c2 0205 	rsbge	r2, r2, #5
   81cb0:	61a2      	strge	r2, [r4, #24]
   81cb2:	eb01 0181 	add.w	r1, r1, r1, lsl #2
   81cb6:	4a16      	ldr	r2, [pc, #88]	; (81d10 <vTaskPriorityDisinheritAfterTimeout+0xb8>)
   81cb8:	eb02 0181 	add.w	r1, r2, r1, lsl #2
   81cbc:	6962      	ldr	r2, [r4, #20]
   81cbe:	428a      	cmp	r2, r1
   81cc0:	d1e2      	bne.n	81c88 <vTaskPriorityDisinheritAfterTimeout+0x30>
   81cc2:	1d25      	adds	r5, r4, #4
   81cc4:	4628      	mov	r0, r5
   81cc6:	4b13      	ldr	r3, [pc, #76]	; (81d14 <vTaskPriorityDisinheritAfterTimeout+0xbc>)
   81cc8:	4798      	blx	r3
   81cca:	b968      	cbnz	r0, 81ce8 <vTaskPriorityDisinheritAfterTimeout+0x90>
   81ccc:	6ae1      	ldr	r1, [r4, #44]	; 0x2c
   81cce:	eb01 0381 	add.w	r3, r1, r1, lsl #2
   81cd2:	009b      	lsls	r3, r3, #2
   81cd4:	4a0e      	ldr	r2, [pc, #56]	; (81d10 <vTaskPriorityDisinheritAfterTimeout+0xb8>)
   81cd6:	58d3      	ldr	r3, [r2, r3]
   81cd8:	b933      	cbnz	r3, 81ce8 <vTaskPriorityDisinheritAfterTimeout+0x90>
   81cda:	480f      	ldr	r0, [pc, #60]	; (81d18 <vTaskPriorityDisinheritAfterTimeout+0xc0>)
   81cdc:	6803      	ldr	r3, [r0, #0]
   81cde:	2201      	movs	r2, #1
   81ce0:	408a      	lsls	r2, r1
   81ce2:	ea23 0302 	bic.w	r3, r3, r2
   81ce6:	6003      	str	r3, [r0, #0]
   81ce8:	6ae0      	ldr	r0, [r4, #44]	; 0x2c
   81cea:	4a0b      	ldr	r2, [pc, #44]	; (81d18 <vTaskPriorityDisinheritAfterTimeout+0xc0>)
   81cec:	6811      	ldr	r1, [r2, #0]
   81cee:	2301      	movs	r3, #1
   81cf0:	4083      	lsls	r3, r0
   81cf2:	430b      	orrs	r3, r1
   81cf4:	6013      	str	r3, [r2, #0]
   81cf6:	eb00 0080 	add.w	r0, r0, r0, lsl #2
   81cfa:	4629      	mov	r1, r5
   81cfc:	4b04      	ldr	r3, [pc, #16]	; (81d10 <vTaskPriorityDisinheritAfterTimeout+0xb8>)
   81cfe:	eb03 0080 	add.w	r0, r3, r0, lsl #2
   81d02:	4b06      	ldr	r3, [pc, #24]	; (81d1c <vTaskPriorityDisinheritAfterTimeout+0xc4>)
   81d04:	4798      	blx	r3
   81d06:	e7bf      	b.n	81c88 <vTaskPriorityDisinheritAfterTimeout+0x30>
   81d08:	4770      	bx	lr
   81d0a:	bf00      	nop
   81d0c:	2007c1a0 	.word	0x2007c1a0
   81d10:	2007c1ac 	.word	0x2007c1ac
   81d14:	000804f5 	.word	0x000804f5
   81d18:	2007c224 	.word	0x2007c224
   81d1c:	000804a9 	.word	0x000804a9

00081d20 <pvTaskIncrementMutexHeldCount>:
   81d20:	4b05      	ldr	r3, [pc, #20]	; (81d38 <pvTaskIncrementMutexHeldCount+0x18>)
   81d22:	681b      	ldr	r3, [r3, #0]
   81d24:	b123      	cbz	r3, 81d30 <pvTaskIncrementMutexHeldCount+0x10>
   81d26:	4b04      	ldr	r3, [pc, #16]	; (81d38 <pvTaskIncrementMutexHeldCount+0x18>)
   81d28:	681a      	ldr	r2, [r3, #0]
   81d2a:	6d53      	ldr	r3, [r2, #84]	; 0x54
   81d2c:	3301      	adds	r3, #1
   81d2e:	6553      	str	r3, [r2, #84]	; 0x54
   81d30:	4b01      	ldr	r3, [pc, #4]	; (81d38 <pvTaskIncrementMutexHeldCount+0x18>)
   81d32:	6818      	ldr	r0, [r3, #0]
   81d34:	4770      	bx	lr
   81d36:	bf00      	nop
   81d38:	2007c1a0 	.word	0x2007c1a0

00081d3c <prvInsertTimerInActiveList>:
   81d3c:	b508      	push	{r3, lr}
   81d3e:	6041      	str	r1, [r0, #4]
   81d40:	6100      	str	r0, [r0, #16]
   81d42:	4291      	cmp	r1, r2
   81d44:	d80c      	bhi.n	81d60 <prvInsertTimerInActiveList+0x24>
   81d46:	1ad2      	subs	r2, r2, r3
   81d48:	6983      	ldr	r3, [r0, #24]
   81d4a:	429a      	cmp	r2, r3
   81d4c:	d301      	bcc.n	81d52 <prvInsertTimerInActiveList+0x16>
   81d4e:	2001      	movs	r0, #1
   81d50:	bd08      	pop	{r3, pc}
   81d52:	1d01      	adds	r1, r0, #4
   81d54:	4b09      	ldr	r3, [pc, #36]	; (81d7c <prvInsertTimerInActiveList+0x40>)
   81d56:	6818      	ldr	r0, [r3, #0]
   81d58:	4b09      	ldr	r3, [pc, #36]	; (81d80 <prvInsertTimerInActiveList+0x44>)
   81d5a:	4798      	blx	r3
   81d5c:	2000      	movs	r0, #0
   81d5e:	bd08      	pop	{r3, pc}
   81d60:	429a      	cmp	r2, r3
   81d62:	d201      	bcs.n	81d68 <prvInsertTimerInActiveList+0x2c>
   81d64:	4299      	cmp	r1, r3
   81d66:	d206      	bcs.n	81d76 <prvInsertTimerInActiveList+0x3a>
   81d68:	1d01      	adds	r1, r0, #4
   81d6a:	4b06      	ldr	r3, [pc, #24]	; (81d84 <prvInsertTimerInActiveList+0x48>)
   81d6c:	6818      	ldr	r0, [r3, #0]
   81d6e:	4b04      	ldr	r3, [pc, #16]	; (81d80 <prvInsertTimerInActiveList+0x44>)
   81d70:	4798      	blx	r3
   81d72:	2000      	movs	r0, #0
   81d74:	bd08      	pop	{r3, pc}
   81d76:	2001      	movs	r0, #1
   81d78:	bd08      	pop	{r3, pc}
   81d7a:	bf00      	nop
   81d7c:	2007c2a8 	.word	0x2007c2a8
   81d80:	000804c1 	.word	0x000804c1
   81d84:	2007c2a4 	.word	0x2007c2a4

00081d88 <prvCheckForValidListAndQueue>:
   81d88:	b570      	push	{r4, r5, r6, lr}
   81d8a:	4b10      	ldr	r3, [pc, #64]	; (81dcc <prvCheckForValidListAndQueue+0x44>)
   81d8c:	4798      	blx	r3
   81d8e:	4b10      	ldr	r3, [pc, #64]	; (81dd0 <prvCheckForValidListAndQueue+0x48>)
   81d90:	681b      	ldr	r3, [r3, #0]
   81d92:	b113      	cbz	r3, 81d9a <prvCheckForValidListAndQueue+0x12>
   81d94:	4b0f      	ldr	r3, [pc, #60]	; (81dd4 <prvCheckForValidListAndQueue+0x4c>)
   81d96:	4798      	blx	r3
   81d98:	bd70      	pop	{r4, r5, r6, pc}
   81d9a:	4d0f      	ldr	r5, [pc, #60]	; (81dd8 <prvCheckForValidListAndQueue+0x50>)
   81d9c:	4628      	mov	r0, r5
   81d9e:	4e0f      	ldr	r6, [pc, #60]	; (81ddc <prvCheckForValidListAndQueue+0x54>)
   81da0:	47b0      	blx	r6
   81da2:	4c0f      	ldr	r4, [pc, #60]	; (81de0 <prvCheckForValidListAndQueue+0x58>)
   81da4:	4620      	mov	r0, r4
   81da6:	47b0      	blx	r6
   81da8:	4b0e      	ldr	r3, [pc, #56]	; (81de4 <prvCheckForValidListAndQueue+0x5c>)
   81daa:	601d      	str	r5, [r3, #0]
   81dac:	4b0e      	ldr	r3, [pc, #56]	; (81de8 <prvCheckForValidListAndQueue+0x60>)
   81dae:	601c      	str	r4, [r3, #0]
   81db0:	2200      	movs	r2, #0
   81db2:	2110      	movs	r1, #16
   81db4:	2005      	movs	r0, #5
   81db6:	4b0d      	ldr	r3, [pc, #52]	; (81dec <prvCheckForValidListAndQueue+0x64>)
   81db8:	4798      	blx	r3
   81dba:	4b05      	ldr	r3, [pc, #20]	; (81dd0 <prvCheckForValidListAndQueue+0x48>)
   81dbc:	6018      	str	r0, [r3, #0]
   81dbe:	2800      	cmp	r0, #0
   81dc0:	d0e8      	beq.n	81d94 <prvCheckForValidListAndQueue+0xc>
   81dc2:	490b      	ldr	r1, [pc, #44]	; (81df0 <prvCheckForValidListAndQueue+0x68>)
   81dc4:	4b0b      	ldr	r3, [pc, #44]	; (81df4 <prvCheckForValidListAndQueue+0x6c>)
   81dc6:	4798      	blx	r3
   81dc8:	e7e4      	b.n	81d94 <prvCheckForValidListAndQueue+0xc>
   81dca:	bf00      	nop
   81dcc:	000805c9 	.word	0x000805c9
   81dd0:	2007c2d8 	.word	0x2007c2d8
   81dd4:	0008060d 	.word	0x0008060d
   81dd8:	2007c2ac 	.word	0x2007c2ac
   81ddc:	0008048d 	.word	0x0008048d
   81de0:	2007c2c0 	.word	0x2007c2c0
   81de4:	2007c2a4 	.word	0x2007c2a4
   81de8:	2007c2a8 	.word	0x2007c2a8
   81dec:	00080a7d 	.word	0x00080a7d
   81df0:	00083abc 	.word	0x00083abc
   81df4:	000810fd 	.word	0x000810fd

00081df8 <xTimerCreateTimerTask>:
   81df8:	b510      	push	{r4, lr}
   81dfa:	b082      	sub	sp, #8
   81dfc:	4b0d      	ldr	r3, [pc, #52]	; (81e34 <xTimerCreateTimerTask+0x3c>)
   81dfe:	4798      	blx	r3
   81e00:	4b0d      	ldr	r3, [pc, #52]	; (81e38 <xTimerCreateTimerTask+0x40>)
   81e02:	681b      	ldr	r3, [r3, #0]
   81e04:	b16b      	cbz	r3, 81e22 <xTimerCreateTimerTask+0x2a>
   81e06:	4b0d      	ldr	r3, [pc, #52]	; (81e3c <xTimerCreateTimerTask+0x44>)
   81e08:	9301      	str	r3, [sp, #4]
   81e0a:	2304      	movs	r3, #4
   81e0c:	9300      	str	r3, [sp, #0]
   81e0e:	2300      	movs	r3, #0
   81e10:	f44f 7282 	mov.w	r2, #260	; 0x104
   81e14:	490a      	ldr	r1, [pc, #40]	; (81e40 <xTimerCreateTimerTask+0x48>)
   81e16:	480b      	ldr	r0, [pc, #44]	; (81e44 <xTimerCreateTimerTask+0x4c>)
   81e18:	4c0b      	ldr	r4, [pc, #44]	; (81e48 <xTimerCreateTimerTask+0x50>)
   81e1a:	47a0      	blx	r4
   81e1c:	b108      	cbz	r0, 81e22 <xTimerCreateTimerTask+0x2a>
   81e1e:	b002      	add	sp, #8
   81e20:	bd10      	pop	{r4, pc}
   81e22:	f04f 0340 	mov.w	r3, #64	; 0x40
   81e26:	f383 8811 	msr	BASEPRI, r3
   81e2a:	f3bf 8f6f 	isb	sy
   81e2e:	f3bf 8f4f 	dsb	sy
   81e32:	e7fe      	b.n	81e32 <xTimerCreateTimerTask+0x3a>
   81e34:	00081d89 	.word	0x00081d89
   81e38:	2007c2d8 	.word	0x2007c2d8
   81e3c:	2007c2dc 	.word	0x2007c2dc
   81e40:	00083ac4 	.word	0x00083ac4
   81e44:	00081f6d 	.word	0x00081f6d
   81e48:	000812dd 	.word	0x000812dd

00081e4c <xTimerGenericCommand>:
   81e4c:	b1d8      	cbz	r0, 81e86 <xTimerGenericCommand+0x3a>
   81e4e:	b530      	push	{r4, r5, lr}
   81e50:	b085      	sub	sp, #20
   81e52:	4615      	mov	r5, r2
   81e54:	4604      	mov	r4, r0
   81e56:	4a14      	ldr	r2, [pc, #80]	; (81ea8 <xTimerGenericCommand+0x5c>)
   81e58:	6810      	ldr	r0, [r2, #0]
   81e5a:	b310      	cbz	r0, 81ea2 <xTimerGenericCommand+0x56>
   81e5c:	461a      	mov	r2, r3
   81e5e:	9100      	str	r1, [sp, #0]
   81e60:	9501      	str	r5, [sp, #4]
   81e62:	9402      	str	r4, [sp, #8]
   81e64:	2905      	cmp	r1, #5
   81e66:	dc17      	bgt.n	81e98 <xTimerGenericCommand+0x4c>
   81e68:	4b10      	ldr	r3, [pc, #64]	; (81eac <xTimerGenericCommand+0x60>)
   81e6a:	4798      	blx	r3
   81e6c:	2802      	cmp	r0, #2
   81e6e:	f04f 0300 	mov.w	r3, #0
   81e72:	bf0c      	ite	eq
   81e74:	9a08      	ldreq	r2, [sp, #32]
   81e76:	461a      	movne	r2, r3
   81e78:	4669      	mov	r1, sp
   81e7a:	480b      	ldr	r0, [pc, #44]	; (81ea8 <xTimerGenericCommand+0x5c>)
   81e7c:	6800      	ldr	r0, [r0, #0]
   81e7e:	4c0c      	ldr	r4, [pc, #48]	; (81eb0 <xTimerGenericCommand+0x64>)
   81e80:	47a0      	blx	r4
   81e82:	b005      	add	sp, #20
   81e84:	bd30      	pop	{r4, r5, pc}
   81e86:	f04f 0340 	mov.w	r3, #64	; 0x40
   81e8a:	f383 8811 	msr	BASEPRI, r3
   81e8e:	f3bf 8f6f 	isb	sy
   81e92:	f3bf 8f4f 	dsb	sy
   81e96:	e7fe      	b.n	81e96 <xTimerGenericCommand+0x4a>
   81e98:	2300      	movs	r3, #0
   81e9a:	4669      	mov	r1, sp
   81e9c:	4c05      	ldr	r4, [pc, #20]	; (81eb4 <xTimerGenericCommand+0x68>)
   81e9e:	47a0      	blx	r4
   81ea0:	e7ef      	b.n	81e82 <xTimerGenericCommand+0x36>
   81ea2:	2000      	movs	r0, #0
   81ea4:	e7ed      	b.n	81e82 <xTimerGenericCommand+0x36>
   81ea6:	bf00      	nop
   81ea8:	2007c2d8 	.word	0x2007c2d8
   81eac:	00081abd 	.word	0x00081abd
   81eb0:	00080ad1 	.word	0x00080ad1
   81eb4:	00080cb1 	.word	0x00080cb1

00081eb8 <prvSampleTimeNow>:
   81eb8:	e92d 47f0 	stmdb	sp!, {r4, r5, r6, r7, r8, r9, sl, lr}
   81ebc:	b082      	sub	sp, #8
   81ebe:	4680      	mov	r8, r0
   81ec0:	4b23      	ldr	r3, [pc, #140]	; (81f50 <prvSampleTimeNow+0x98>)
   81ec2:	4798      	blx	r3
   81ec4:	4607      	mov	r7, r0
   81ec6:	4b23      	ldr	r3, [pc, #140]	; (81f54 <prvSampleTimeNow+0x9c>)
   81ec8:	681b      	ldr	r3, [r3, #0]
   81eca:	4298      	cmp	r0, r3
   81ecc:	d319      	bcc.n	81f02 <prvSampleTimeNow+0x4a>
   81ece:	2300      	movs	r3, #0
   81ed0:	f8c8 3000 	str.w	r3, [r8]
   81ed4:	4b1f      	ldr	r3, [pc, #124]	; (81f54 <prvSampleTimeNow+0x9c>)
   81ed6:	601f      	str	r7, [r3, #0]
   81ed8:	4638      	mov	r0, r7
   81eda:	b002      	add	sp, #8
   81edc:	e8bd 87f0 	ldmia.w	sp!, {r4, r5, r6, r7, r8, r9, sl, pc}
   81ee0:	2100      	movs	r1, #0
   81ee2:	9100      	str	r1, [sp, #0]
   81ee4:	460b      	mov	r3, r1
   81ee6:	4652      	mov	r2, sl
   81ee8:	4620      	mov	r0, r4
   81eea:	4c1b      	ldr	r4, [pc, #108]	; (81f58 <prvSampleTimeNow+0xa0>)
   81eec:	47a0      	blx	r4
   81eee:	b950      	cbnz	r0, 81f06 <prvSampleTimeNow+0x4e>
   81ef0:	f04f 0340 	mov.w	r3, #64	; 0x40
   81ef4:	f383 8811 	msr	BASEPRI, r3
   81ef8:	f3bf 8f6f 	isb	sy
   81efc:	f3bf 8f4f 	dsb	sy
   81f00:	e7fe      	b.n	81f00 <prvSampleTimeNow+0x48>
   81f02:	4d16      	ldr	r5, [pc, #88]	; (81f5c <prvSampleTimeNow+0xa4>)
   81f04:	4e16      	ldr	r6, [pc, #88]	; (81f60 <prvSampleTimeNow+0xa8>)
   81f06:	682b      	ldr	r3, [r5, #0]
   81f08:	681a      	ldr	r2, [r3, #0]
   81f0a:	b1c2      	cbz	r2, 81f3e <prvSampleTimeNow+0x86>
   81f0c:	68db      	ldr	r3, [r3, #12]
   81f0e:	f8d3 a000 	ldr.w	sl, [r3]
   81f12:	68dc      	ldr	r4, [r3, #12]
   81f14:	f104 0904 	add.w	r9, r4, #4
   81f18:	4648      	mov	r0, r9
   81f1a:	47b0      	blx	r6
   81f1c:	6a63      	ldr	r3, [r4, #36]	; 0x24
   81f1e:	4620      	mov	r0, r4
   81f20:	4798      	blx	r3
   81f22:	69e3      	ldr	r3, [r4, #28]
   81f24:	2b01      	cmp	r3, #1
   81f26:	d1ee      	bne.n	81f06 <prvSampleTimeNow+0x4e>
   81f28:	69a3      	ldr	r3, [r4, #24]
   81f2a:	4453      	add	r3, sl
   81f2c:	459a      	cmp	sl, r3
   81f2e:	d2d7      	bcs.n	81ee0 <prvSampleTimeNow+0x28>
   81f30:	6063      	str	r3, [r4, #4]
   81f32:	6124      	str	r4, [r4, #16]
   81f34:	4649      	mov	r1, r9
   81f36:	6828      	ldr	r0, [r5, #0]
   81f38:	4b0a      	ldr	r3, [pc, #40]	; (81f64 <prvSampleTimeNow+0xac>)
   81f3a:	4798      	blx	r3
   81f3c:	e7e3      	b.n	81f06 <prvSampleTimeNow+0x4e>
   81f3e:	4a0a      	ldr	r2, [pc, #40]	; (81f68 <prvSampleTimeNow+0xb0>)
   81f40:	6810      	ldr	r0, [r2, #0]
   81f42:	4906      	ldr	r1, [pc, #24]	; (81f5c <prvSampleTimeNow+0xa4>)
   81f44:	6008      	str	r0, [r1, #0]
   81f46:	6013      	str	r3, [r2, #0]
   81f48:	2301      	movs	r3, #1
   81f4a:	f8c8 3000 	str.w	r3, [r8]
   81f4e:	e7c1      	b.n	81ed4 <prvSampleTimeNow+0x1c>
   81f50:	0008156d 	.word	0x0008156d
   81f54:	2007c2d4 	.word	0x2007c2d4
   81f58:	00081e4d 	.word	0x00081e4d
   81f5c:	2007c2a4 	.word	0x2007c2a4
   81f60:	000804f5 	.word	0x000804f5
   81f64:	000804c1 	.word	0x000804c1
   81f68:	2007c2a8 	.word	0x2007c2a8

00081f6c <prvTimerTask>:
   81f6c:	e92d 47f0 	stmdb	sp!, {r4, r5, r6, r7, r8, r9, sl, lr}
   81f70:	b088      	sub	sp, #32
   81f72:	4e70      	ldr	r6, [pc, #448]	; (82134 <prvTimerTask+0x1c8>)
   81f74:	4f70      	ldr	r7, [pc, #448]	; (82138 <prvTimerTask+0x1cc>)
   81f76:	f8df 91e8 	ldr.w	r9, [pc, #488]	; 82160 <prvTimerTask+0x1f4>
   81f7a:	f8df 81e8 	ldr.w	r8, [pc, #488]	; 82164 <prvTimerTask+0x1f8>
   81f7e:	6833      	ldr	r3, [r6, #0]
   81f80:	681a      	ldr	r2, [r3, #0]
   81f82:	b172      	cbz	r2, 81fa2 <prvTimerTask+0x36>
   81f84:	68db      	ldr	r3, [r3, #12]
   81f86:	681c      	ldr	r4, [r3, #0]
   81f88:	4b6c      	ldr	r3, [pc, #432]	; (8213c <prvTimerTask+0x1d0>)
   81f8a:	4798      	blx	r3
   81f8c:	a804      	add	r0, sp, #16
   81f8e:	4b6c      	ldr	r3, [pc, #432]	; (82140 <prvTimerTask+0x1d4>)
   81f90:	4798      	blx	r3
   81f92:	4605      	mov	r5, r0
   81f94:	9b04      	ldr	r3, [sp, #16]
   81f96:	2b00      	cmp	r3, #0
   81f98:	d152      	bne.n	82040 <prvTimerTask+0xd4>
   81f9a:	42a0      	cmp	r0, r4
   81f9c:	d223      	bcs.n	81fe6 <prvTimerTask+0x7a>
   81f9e:	2200      	movs	r2, #0
   81fa0:	e00f      	b.n	81fc2 <prvTimerTask+0x56>
   81fa2:	4b66      	ldr	r3, [pc, #408]	; (8213c <prvTimerTask+0x1d0>)
   81fa4:	4798      	blx	r3
   81fa6:	a804      	add	r0, sp, #16
   81fa8:	4b65      	ldr	r3, [pc, #404]	; (82140 <prvTimerTask+0x1d4>)
   81faa:	4798      	blx	r3
   81fac:	4605      	mov	r5, r0
   81fae:	9b04      	ldr	r3, [sp, #16]
   81fb0:	2b00      	cmp	r3, #0
   81fb2:	d145      	bne.n	82040 <prvTimerTask+0xd4>
   81fb4:	4b63      	ldr	r3, [pc, #396]	; (82144 <prvTimerTask+0x1d8>)
   81fb6:	681b      	ldr	r3, [r3, #0]
   81fb8:	681a      	ldr	r2, [r3, #0]
   81fba:	fab2 f282 	clz	r2, r2
   81fbe:	0952      	lsrs	r2, r2, #5
   81fc0:	2400      	movs	r4, #0
   81fc2:	1b61      	subs	r1, r4, r5
   81fc4:	4b60      	ldr	r3, [pc, #384]	; (82148 <prvTimerTask+0x1dc>)
   81fc6:	6818      	ldr	r0, [r3, #0]
   81fc8:	4b60      	ldr	r3, [pc, #384]	; (8214c <prvTimerTask+0x1e0>)
   81fca:	4798      	blx	r3
   81fcc:	47b8      	blx	r7
   81fce:	b938      	cbnz	r0, 81fe0 <prvTimerTask+0x74>
   81fd0:	f04f 5380 	mov.w	r3, #268435456	; 0x10000000
   81fd4:	f8c9 3000 	str.w	r3, [r9]
   81fd8:	f3bf 8f4f 	dsb	sy
   81fdc:	f3bf 8f6f 	isb	sy
   81fe0:	4d59      	ldr	r5, [pc, #356]	; (82148 <prvTimerTask+0x1dc>)
   81fe2:	4c5b      	ldr	r4, [pc, #364]	; (82150 <prvTimerTask+0x1e4>)
   81fe4:	e035      	b.n	82052 <prvTimerTask+0xe6>
   81fe6:	47b8      	blx	r7
   81fe8:	6833      	ldr	r3, [r6, #0]
   81fea:	68db      	ldr	r3, [r3, #12]
   81fec:	f8d3 a00c 	ldr.w	sl, [r3, #12]
   81ff0:	f10a 0004 	add.w	r0, sl, #4
   81ff4:	47c0      	blx	r8
   81ff6:	f8da 301c 	ldr.w	r3, [sl, #28]
   81ffa:	2b01      	cmp	r3, #1
   81ffc:	d004      	beq.n	82008 <prvTimerTask+0x9c>
   81ffe:	f8da 3024 	ldr.w	r3, [sl, #36]	; 0x24
   82002:	4650      	mov	r0, sl
   82004:	4798      	blx	r3
   82006:	e7eb      	b.n	81fe0 <prvTimerTask+0x74>
   82008:	f8da 1018 	ldr.w	r1, [sl, #24]
   8200c:	4623      	mov	r3, r4
   8200e:	462a      	mov	r2, r5
   82010:	4421      	add	r1, r4
   82012:	4650      	mov	r0, sl
   82014:	4d4f      	ldr	r5, [pc, #316]	; (82154 <prvTimerTask+0x1e8>)
   82016:	47a8      	blx	r5
   82018:	2800      	cmp	r0, #0
   8201a:	d0f0      	beq.n	81ffe <prvTimerTask+0x92>
   8201c:	2100      	movs	r1, #0
   8201e:	9100      	str	r1, [sp, #0]
   82020:	460b      	mov	r3, r1
   82022:	4622      	mov	r2, r4
   82024:	4650      	mov	r0, sl
   82026:	4c4c      	ldr	r4, [pc, #304]	; (82158 <prvTimerTask+0x1ec>)
   82028:	47a0      	blx	r4
   8202a:	2800      	cmp	r0, #0
   8202c:	d1e7      	bne.n	81ffe <prvTimerTask+0x92>
   8202e:	f04f 0340 	mov.w	r3, #64	; 0x40
   82032:	f383 8811 	msr	BASEPRI, r3
   82036:	f3bf 8f6f 	isb	sy
   8203a:	f3bf 8f4f 	dsb	sy
   8203e:	e7fe      	b.n	8203e <prvTimerTask+0xd2>
   82040:	47b8      	blx	r7
   82042:	e7cd      	b.n	81fe0 <prvTimerTask+0x74>
   82044:	9907      	ldr	r1, [sp, #28]
   82046:	9806      	ldr	r0, [sp, #24]
   82048:	9b05      	ldr	r3, [sp, #20]
   8204a:	4798      	blx	r3
   8204c:	9b04      	ldr	r3, [sp, #16]
   8204e:	2b00      	cmp	r3, #0
   82050:	da08      	bge.n	82064 <prvTimerTask+0xf8>
   82052:	2200      	movs	r2, #0
   82054:	a904      	add	r1, sp, #16
   82056:	6828      	ldr	r0, [r5, #0]
   82058:	47a0      	blx	r4
   8205a:	2800      	cmp	r0, #0
   8205c:	d08f      	beq.n	81f7e <prvTimerTask+0x12>
   8205e:	9b04      	ldr	r3, [sp, #16]
   82060:	2b00      	cmp	r3, #0
   82062:	dbef      	blt.n	82044 <prvTimerTask+0xd8>
   82064:	f8dd a018 	ldr.w	sl, [sp, #24]
   82068:	f8da 3014 	ldr.w	r3, [sl, #20]
   8206c:	b113      	cbz	r3, 82074 <prvTimerTask+0x108>
   8206e:	f10a 0004 	add.w	r0, sl, #4
   82072:	47c0      	blx	r8
   82074:	a803      	add	r0, sp, #12
   82076:	4b32      	ldr	r3, [pc, #200]	; (82140 <prvTimerTask+0x1d4>)
   82078:	4798      	blx	r3
   8207a:	9b04      	ldr	r3, [sp, #16]
   8207c:	2b09      	cmp	r3, #9
   8207e:	d8e8      	bhi.n	82052 <prvTimerTask+0xe6>
   82080:	a201      	add	r2, pc, #4	; (adr r2, 82088 <prvTimerTask+0x11c>)
   82082:	f852 f023 	ldr.w	pc, [r2, r3, lsl #2]
   82086:	bf00      	nop
   82088:	000820b1 	.word	0x000820b1
   8208c:	000820b1 	.word	0x000820b1
   82090:	000820b1 	.word	0x000820b1
   82094:	00082053 	.word	0x00082053
   82098:	00082103 	.word	0x00082103
   8209c:	0008212b 	.word	0x0008212b
   820a0:	000820b1 	.word	0x000820b1
   820a4:	000820b1 	.word	0x000820b1
   820a8:	00082053 	.word	0x00082053
   820ac:	00082103 	.word	0x00082103
   820b0:	9c05      	ldr	r4, [sp, #20]
   820b2:	f8da 1018 	ldr.w	r1, [sl, #24]
   820b6:	4623      	mov	r3, r4
   820b8:	4602      	mov	r2, r0
   820ba:	4421      	add	r1, r4
   820bc:	4650      	mov	r0, sl
   820be:	4c25      	ldr	r4, [pc, #148]	; (82154 <prvTimerTask+0x1e8>)
   820c0:	47a0      	blx	r4
   820c2:	2800      	cmp	r0, #0
   820c4:	d08d      	beq.n	81fe2 <prvTimerTask+0x76>
   820c6:	f8da 3024 	ldr.w	r3, [sl, #36]	; 0x24
   820ca:	4650      	mov	r0, sl
   820cc:	4798      	blx	r3
   820ce:	f8da 301c 	ldr.w	r3, [sl, #28]
   820d2:	2b01      	cmp	r3, #1
   820d4:	d185      	bne.n	81fe2 <prvTimerTask+0x76>
   820d6:	f8da 2018 	ldr.w	r2, [sl, #24]
   820da:	2100      	movs	r1, #0
   820dc:	9100      	str	r1, [sp, #0]
   820de:	460b      	mov	r3, r1
   820e0:	9805      	ldr	r0, [sp, #20]
   820e2:	4402      	add	r2, r0
   820e4:	4650      	mov	r0, sl
   820e6:	4c1c      	ldr	r4, [pc, #112]	; (82158 <prvTimerTask+0x1ec>)
   820e8:	47a0      	blx	r4
   820ea:	2800      	cmp	r0, #0
   820ec:	f47f af79 	bne.w	81fe2 <prvTimerTask+0x76>
   820f0:	f04f 0340 	mov.w	r3, #64	; 0x40
   820f4:	f383 8811 	msr	BASEPRI, r3
   820f8:	f3bf 8f6f 	isb	sy
   820fc:	f3bf 8f4f 	dsb	sy
   82100:	e7fe      	b.n	82100 <prvTimerTask+0x194>
   82102:	9905      	ldr	r1, [sp, #20]
   82104:	f8ca 1018 	str.w	r1, [sl, #24]
   82108:	b131      	cbz	r1, 82118 <prvTimerTask+0x1ac>
   8210a:	4603      	mov	r3, r0
   8210c:	4602      	mov	r2, r0
   8210e:	4401      	add	r1, r0
   82110:	4650      	mov	r0, sl
   82112:	4c10      	ldr	r4, [pc, #64]	; (82154 <prvTimerTask+0x1e8>)
   82114:	47a0      	blx	r4
   82116:	e764      	b.n	81fe2 <prvTimerTask+0x76>
   82118:	f04f 0340 	mov.w	r3, #64	; 0x40
   8211c:	f383 8811 	msr	BASEPRI, r3
   82120:	f3bf 8f6f 	isb	sy
   82124:	f3bf 8f4f 	dsb	sy
   82128:	e7fe      	b.n	82128 <prvTimerTask+0x1bc>
   8212a:	4650      	mov	r0, sl
   8212c:	4b0b      	ldr	r3, [pc, #44]	; (8215c <prvTimerTask+0x1f0>)
   8212e:	4798      	blx	r3
   82130:	e757      	b.n	81fe2 <prvTimerTask+0x76>
   82132:	bf00      	nop
   82134:	2007c2a4 	.word	0x2007c2a4
   82138:	000816ad 	.word	0x000816ad
   8213c:	0008155d 	.word	0x0008155d
   82140:	00081eb9 	.word	0x00081eb9
   82144:	2007c2a8 	.word	0x2007c2a8
   82148:	2007c2d8 	.word	0x2007c2d8
   8214c:	0008112d 	.word	0x0008112d
   82150:	00080d95 	.word	0x00080d95
   82154:	00081d3d 	.word	0x00081d3d
   82158:	00081e4d 	.word	0x00081e4d
   8215c:	00080875 	.word	0x00080875
   82160:	e000ed04 	.word	0xe000ed04
   82164:	000804f5 	.word	0x000804f5

00082168 <sysclk_init>:
   82168:	b510      	push	{r4, lr}
   8216a:	480e      	ldr	r0, [pc, #56]	; (821a4 <sysclk_init+0x3c>)
   8216c:	4b0e      	ldr	r3, [pc, #56]	; (821a8 <sysclk_init+0x40>)
   8216e:	4798      	blx	r3
   82170:	213e      	movs	r1, #62	; 0x3e
   82172:	2000      	movs	r0, #0
   82174:	4b0d      	ldr	r3, [pc, #52]	; (821ac <sysclk_init+0x44>)
   82176:	4798      	blx	r3
   82178:	4c0d      	ldr	r4, [pc, #52]	; (821b0 <sysclk_init+0x48>)
   8217a:	47a0      	blx	r4
   8217c:	2800      	cmp	r0, #0
   8217e:	d0fc      	beq.n	8217a <sysclk_init+0x12>
   82180:	4b0c      	ldr	r3, [pc, #48]	; (821b4 <sysclk_init+0x4c>)
   82182:	4798      	blx	r3
   82184:	4a0c      	ldr	r2, [pc, #48]	; (821b8 <sysclk_init+0x50>)
   82186:	4b0d      	ldr	r3, [pc, #52]	; (821bc <sysclk_init+0x54>)
   82188:	629a      	str	r2, [r3, #40]	; 0x28
   8218a:	4c0d      	ldr	r4, [pc, #52]	; (821c0 <sysclk_init+0x58>)
   8218c:	47a0      	blx	r4
   8218e:	2800      	cmp	r0, #0
   82190:	d0fc      	beq.n	8218c <sysclk_init+0x24>
   82192:	2010      	movs	r0, #16
   82194:	4b0b      	ldr	r3, [pc, #44]	; (821c4 <sysclk_init+0x5c>)
   82196:	4798      	blx	r3
   82198:	4b0b      	ldr	r3, [pc, #44]	; (821c8 <sysclk_init+0x60>)
   8219a:	4798      	blx	r3
   8219c:	4801      	ldr	r0, [pc, #4]	; (821a4 <sysclk_init+0x3c>)
   8219e:	4b02      	ldr	r3, [pc, #8]	; (821a8 <sysclk_init+0x40>)
   821a0:	4798      	blx	r3
   821a2:	bd10      	pop	{r4, pc}
   821a4:	0501bd00 	.word	0x0501bd00
   821a8:	200700a5 	.word	0x200700a5
   821ac:	0008255d 	.word	0x0008255d
   821b0:	000825b1 	.word	0x000825b1
   821b4:	000825c1 	.word	0x000825c1
   821b8:	200d3f01 	.word	0x200d3f01
   821bc:	400e0600 	.word	0x400e0600
   821c0:	000825d1 	.word	0x000825d1
   821c4:	000824f9 	.word	0x000824f9
   821c8:	0008269d 	.word	0x0008269d

000821cc <board_init>:
   821cc:	b510      	push	{r4, lr}
   821ce:	f44f 4200 	mov.w	r2, #32768	; 0x8000
   821d2:	4b16      	ldr	r3, [pc, #88]	; (8222c <board_init+0x60>)
   821d4:	605a      	str	r2, [r3, #4]
   821d6:	200b      	movs	r0, #11
   821d8:	4c15      	ldr	r4, [pc, #84]	; (82230 <board_init+0x64>)
   821da:	47a0      	blx	r4
   821dc:	200c      	movs	r0, #12
   821de:	47a0      	blx	r4
   821e0:	200d      	movs	r0, #13
   821e2:	47a0      	blx	r4
   821e4:	200e      	movs	r0, #14
   821e6:	47a0      	blx	r4
   821e8:	f04f 5160 	mov.w	r1, #939524096	; 0x38000000
   821ec:	203b      	movs	r0, #59	; 0x3b
   821ee:	4c11      	ldr	r4, [pc, #68]	; (82234 <board_init+0x68>)
   821f0:	47a0      	blx	r4
   821f2:	f04f 5160 	mov.w	r1, #939524096	; 0x38000000
   821f6:	2055      	movs	r0, #85	; 0x55
   821f8:	47a0      	blx	r4
   821fa:	f04f 5160 	mov.w	r1, #939524096	; 0x38000000
   821fe:	2056      	movs	r0, #86	; 0x56
   82200:	47a0      	blx	r4
   82202:	490d      	ldr	r1, [pc, #52]	; (82238 <board_init+0x6c>)
   82204:	2068      	movs	r0, #104	; 0x68
   82206:	47a0      	blx	r4
   82208:	490c      	ldr	r1, [pc, #48]	; (8223c <board_init+0x70>)
   8220a:	205c      	movs	r0, #92	; 0x5c
   8220c:	47a0      	blx	r4
   8220e:	4a0c      	ldr	r2, [pc, #48]	; (82240 <board_init+0x74>)
   82210:	f44f 7140 	mov.w	r1, #768	; 0x300
   82214:	480b      	ldr	r0, [pc, #44]	; (82244 <board_init+0x78>)
   82216:	4b0c      	ldr	r3, [pc, #48]	; (82248 <board_init+0x7c>)
   82218:	4798      	blx	r3
   8221a:	f04f 6100 	mov.w	r1, #134217728	; 0x8000000
   8221e:	202b      	movs	r0, #43	; 0x2b
   82220:	47a0      	blx	r4
   82222:	f04f 6100 	mov.w	r1, #134217728	; 0x8000000
   82226:	202a      	movs	r0, #42	; 0x2a
   82228:	47a0      	blx	r4
   8222a:	bd10      	pop	{r4, pc}
   8222c:	400e1a50 	.word	0x400e1a50
   82230:	000825e1 	.word	0x000825e1
   82234:	000822ed 	.word	0x000822ed
   82238:	28000079 	.word	0x28000079
   8223c:	28000001 	.word	0x28000001
   82240:	08000001 	.word	0x08000001
   82244:	400e0e00 	.word	0x400e0e00
   82248:	000823bd 	.word	0x000823bd

0008224c <pio_set_peripheral>:
   8224c:	6442      	str	r2, [r0, #68]	; 0x44
   8224e:	f1b1 5f80 	cmp.w	r1, #268435456	; 0x10000000
   82252:	d016      	beq.n	82282 <pio_set_peripheral+0x36>
   82254:	d80b      	bhi.n	8226e <pio_set_peripheral+0x22>
   82256:	b149      	cbz	r1, 8226c <pio_set_peripheral+0x20>
   82258:	f1b1 6f00 	cmp.w	r1, #134217728	; 0x8000000
   8225c:	d105      	bne.n	8226a <pio_set_peripheral+0x1e>
   8225e:	6f03      	ldr	r3, [r0, #112]	; 0x70
   82260:	6f01      	ldr	r1, [r0, #112]	; 0x70
   82262:	400b      	ands	r3, r1
   82264:	ea23 0302 	bic.w	r3, r3, r2
   82268:	6703      	str	r3, [r0, #112]	; 0x70
   8226a:	6042      	str	r2, [r0, #4]
   8226c:	4770      	bx	lr
   8226e:	f1b1 5f40 	cmp.w	r1, #805306368	; 0x30000000
   82272:	d0fb      	beq.n	8226c <pio_set_peripheral+0x20>
   82274:	f1b1 5f60 	cmp.w	r1, #939524096	; 0x38000000
   82278:	d0f8      	beq.n	8226c <pio_set_peripheral+0x20>
   8227a:	f1b1 5f20 	cmp.w	r1, #671088640	; 0x28000000
   8227e:	d1f4      	bne.n	8226a <pio_set_peripheral+0x1e>
   82280:	4770      	bx	lr
   82282:	6f03      	ldr	r3, [r0, #112]	; 0x70
   82284:	4313      	orrs	r3, r2
   82286:	6703      	str	r3, [r0, #112]	; 0x70
   82288:	e7ef      	b.n	8226a <pio_set_peripheral+0x1e>

0008228a <pio_set_input>:
   8228a:	6441      	str	r1, [r0, #68]	; 0x44
   8228c:	f012 0f01 	tst.w	r2, #1
   82290:	bf14      	ite	ne
   82292:	6641      	strne	r1, [r0, #100]	; 0x64
   82294:	6601      	streq	r1, [r0, #96]	; 0x60
   82296:	f012 0f0a 	tst.w	r2, #10
   8229a:	bf14      	ite	ne
   8229c:	6201      	strne	r1, [r0, #32]
   8229e:	6241      	streq	r1, [r0, #36]	; 0x24
   822a0:	f012 0f02 	tst.w	r2, #2
   822a4:	d107      	bne.n	822b6 <pio_set_input+0x2c>
   822a6:	f012 0f08 	tst.w	r2, #8
   822aa:	bf18      	it	ne
   822ac:	f8c0 1084 	strne.w	r1, [r0, #132]	; 0x84
   822b0:	6141      	str	r1, [r0, #20]
   822b2:	6001      	str	r1, [r0, #0]
   822b4:	4770      	bx	lr
   822b6:	f8c0 1080 	str.w	r1, [r0, #128]	; 0x80
   822ba:	e7f9      	b.n	822b0 <pio_set_input+0x26>

000822bc <pio_set_output>:
   822bc:	b410      	push	{r4}
   822be:	9c01      	ldr	r4, [sp, #4]
   822c0:	6441      	str	r1, [r0, #68]	; 0x44
   822c2:	b944      	cbnz	r4, 822d6 <pio_set_output+0x1a>
   822c4:	6601      	str	r1, [r0, #96]	; 0x60
   822c6:	b143      	cbz	r3, 822da <pio_set_output+0x1e>
   822c8:	6501      	str	r1, [r0, #80]	; 0x50
   822ca:	b942      	cbnz	r2, 822de <pio_set_output+0x22>
   822cc:	6341      	str	r1, [r0, #52]	; 0x34
   822ce:	6101      	str	r1, [r0, #16]
   822d0:	6001      	str	r1, [r0, #0]
   822d2:	bc10      	pop	{r4}
   822d4:	4770      	bx	lr
   822d6:	6641      	str	r1, [r0, #100]	; 0x64
   822d8:	e7f5      	b.n	822c6 <pio_set_output+0xa>
   822da:	6541      	str	r1, [r0, #84]	; 0x54
   822dc:	e7f5      	b.n	822ca <pio_set_output+0xe>
   822de:	6301      	str	r1, [r0, #48]	; 0x30
   822e0:	e7f5      	b.n	822ce <pio_set_output+0x12>

000822e2 <pio_get_interrupt_status>:
   822e2:	6cc0      	ldr	r0, [r0, #76]	; 0x4c
   822e4:	4770      	bx	lr

000822e6 <pio_get_interrupt_mask>:
   822e6:	6c80      	ldr	r0, [r0, #72]	; 0x48
   822e8:	4770      	bx	lr
	...

000822ec <pio_configure_pin>:
   822ec:	b570      	push	{r4, r5, r6, lr}
   822ee:	b082      	sub	sp, #8
   822f0:	460d      	mov	r5, r1
   822f2:	0943      	lsrs	r3, r0, #5
   822f4:	f503 1300 	add.w	r3, r3, #2097152	; 0x200000
   822f8:	f203 7307 	addw	r3, r3, #1799	; 0x707
   822fc:	025c      	lsls	r4, r3, #9
   822fe:	f001 43f0 	and.w	r3, r1, #2013265920	; 0x78000000
   82302:	f1b3 5f20 	cmp.w	r3, #671088640	; 0x28000000
   82306:	d031      	beq.n	8236c <pio_configure_pin+0x80>
   82308:	d816      	bhi.n	82338 <pio_configure_pin+0x4c>
   8230a:	f1b3 6f00 	cmp.w	r3, #134217728	; 0x8000000
   8230e:	d01b      	beq.n	82348 <pio_configure_pin+0x5c>
   82310:	f1b3 5f80 	cmp.w	r3, #268435456	; 0x10000000
   82314:	d116      	bne.n	82344 <pio_configure_pin+0x58>
   82316:	f000 001f 	and.w	r0, r0, #31
   8231a:	2601      	movs	r6, #1
   8231c:	4086      	lsls	r6, r0
   8231e:	4632      	mov	r2, r6
   82320:	f04f 5180 	mov.w	r1, #268435456	; 0x10000000
   82324:	4620      	mov	r0, r4
   82326:	4b22      	ldr	r3, [pc, #136]	; (823b0 <pio_configure_pin+0xc4>)
   82328:	4798      	blx	r3
   8232a:	f015 0f01 	tst.w	r5, #1
   8232e:	bf14      	ite	ne
   82330:	6666      	strne	r6, [r4, #100]	; 0x64
   82332:	6626      	streq	r6, [r4, #96]	; 0x60
   82334:	2001      	movs	r0, #1
   82336:	e017      	b.n	82368 <pio_configure_pin+0x7c>
   82338:	f1b3 5f40 	cmp.w	r3, #805306368	; 0x30000000
   8233c:	d021      	beq.n	82382 <pio_configure_pin+0x96>
   8233e:	f1b3 5f60 	cmp.w	r3, #939524096	; 0x38000000
   82342:	d01e      	beq.n	82382 <pio_configure_pin+0x96>
   82344:	2000      	movs	r0, #0
   82346:	e00f      	b.n	82368 <pio_configure_pin+0x7c>
   82348:	f000 001f 	and.w	r0, r0, #31
   8234c:	2601      	movs	r6, #1
   8234e:	4086      	lsls	r6, r0
   82350:	4632      	mov	r2, r6
   82352:	f04f 6100 	mov.w	r1, #134217728	; 0x8000000
   82356:	4620      	mov	r0, r4
   82358:	4b15      	ldr	r3, [pc, #84]	; (823b0 <pio_configure_pin+0xc4>)
   8235a:	4798      	blx	r3
   8235c:	f015 0f01 	tst.w	r5, #1
   82360:	bf14      	ite	ne
   82362:	6666      	strne	r6, [r4, #100]	; 0x64
   82364:	6626      	streq	r6, [r4, #96]	; 0x60
   82366:	2001      	movs	r0, #1
   82368:	b002      	add	sp, #8
   8236a:	bd70      	pop	{r4, r5, r6, pc}
   8236c:	f000 011f 	and.w	r1, r0, #31
   82370:	2601      	movs	r6, #1
   82372:	462a      	mov	r2, r5
   82374:	fa06 f101 	lsl.w	r1, r6, r1
   82378:	4620      	mov	r0, r4
   8237a:	4b0e      	ldr	r3, [pc, #56]	; (823b4 <pio_configure_pin+0xc8>)
   8237c:	4798      	blx	r3
   8237e:	4630      	mov	r0, r6
   82380:	e7f2      	b.n	82368 <pio_configure_pin+0x7c>
   82382:	f005 5260 	and.w	r2, r5, #939524096	; 0x38000000
   82386:	f000 011f 	and.w	r1, r0, #31
   8238a:	2601      	movs	r6, #1
   8238c:	ea05 0306 	and.w	r3, r5, r6
   82390:	9300      	str	r3, [sp, #0]
   82392:	f3c5 0380 	ubfx	r3, r5, #2, #1
   82396:	f1b2 5f60 	cmp.w	r2, #939524096	; 0x38000000
   8239a:	bf14      	ite	ne
   8239c:	2200      	movne	r2, #0
   8239e:	2201      	moveq	r2, #1
   823a0:	fa06 f101 	lsl.w	r1, r6, r1
   823a4:	4620      	mov	r0, r4
   823a6:	4c04      	ldr	r4, [pc, #16]	; (823b8 <pio_configure_pin+0xcc>)
   823a8:	47a0      	blx	r4
   823aa:	4630      	mov	r0, r6
   823ac:	e7dc      	b.n	82368 <pio_configure_pin+0x7c>
   823ae:	bf00      	nop
   823b0:	0008224d 	.word	0x0008224d
   823b4:	0008228b 	.word	0x0008228b
   823b8:	000822bd 	.word	0x000822bd

000823bc <pio_configure_pin_group>:
   823bc:	b570      	push	{r4, r5, r6, lr}
   823be:	b082      	sub	sp, #8
   823c0:	4605      	mov	r5, r0
   823c2:	460e      	mov	r6, r1
   823c4:	4614      	mov	r4, r2
   823c6:	f002 43f0 	and.w	r3, r2, #2013265920	; 0x78000000
   823ca:	f1b3 5f20 	cmp.w	r3, #671088640	; 0x28000000
   823ce:	d027      	beq.n	82420 <pio_configure_pin_group+0x64>
   823d0:	d811      	bhi.n	823f6 <pio_configure_pin_group+0x3a>
   823d2:	f1b3 6f00 	cmp.w	r3, #134217728	; 0x8000000
   823d6:	d016      	beq.n	82406 <pio_configure_pin_group+0x4a>
   823d8:	f1b3 5f80 	cmp.w	r3, #268435456	; 0x10000000
   823dc:	d111      	bne.n	82402 <pio_configure_pin_group+0x46>
   823de:	460a      	mov	r2, r1
   823e0:	f04f 5180 	mov.w	r1, #268435456	; 0x10000000
   823e4:	4b19      	ldr	r3, [pc, #100]	; (8244c <pio_configure_pin_group+0x90>)
   823e6:	4798      	blx	r3
   823e8:	f014 0f01 	tst.w	r4, #1
   823ec:	bf14      	ite	ne
   823ee:	666e      	strne	r6, [r5, #100]	; 0x64
   823f0:	662e      	streq	r6, [r5, #96]	; 0x60
   823f2:	2001      	movs	r0, #1
   823f4:	e012      	b.n	8241c <pio_configure_pin_group+0x60>
   823f6:	f1b3 5f40 	cmp.w	r3, #805306368	; 0x30000000
   823fa:	d015      	beq.n	82428 <pio_configure_pin_group+0x6c>
   823fc:	f1b3 5f60 	cmp.w	r3, #939524096	; 0x38000000
   82400:	d012      	beq.n	82428 <pio_configure_pin_group+0x6c>
   82402:	2000      	movs	r0, #0
   82404:	e00a      	b.n	8241c <pio_configure_pin_group+0x60>
   82406:	460a      	mov	r2, r1
   82408:	f04f 6100 	mov.w	r1, #134217728	; 0x8000000
   8240c:	4b0f      	ldr	r3, [pc, #60]	; (8244c <pio_configure_pin_group+0x90>)
   8240e:	4798      	blx	r3
   82410:	f014 0f01 	tst.w	r4, #1
   82414:	bf14      	ite	ne
   82416:	666e      	strne	r6, [r5, #100]	; 0x64
   82418:	662e      	streq	r6, [r5, #96]	; 0x60
   8241a:	2001      	movs	r0, #1
   8241c:	b002      	add	sp, #8
   8241e:	bd70      	pop	{r4, r5, r6, pc}
   82420:	4b0b      	ldr	r3, [pc, #44]	; (82450 <pio_configure_pin_group+0x94>)
   82422:	4798      	blx	r3
   82424:	2001      	movs	r0, #1
   82426:	e7f9      	b.n	8241c <pio_configure_pin_group+0x60>
   82428:	f004 5260 	and.w	r2, r4, #939524096	; 0x38000000
   8242c:	f004 0301 	and.w	r3, r4, #1
   82430:	9300      	str	r3, [sp, #0]
   82432:	f3c4 0380 	ubfx	r3, r4, #2, #1
   82436:	f1b2 5f60 	cmp.w	r2, #939524096	; 0x38000000
   8243a:	bf14      	ite	ne
   8243c:	2200      	movne	r2, #0
   8243e:	2201      	moveq	r2, #1
   82440:	4631      	mov	r1, r6
   82442:	4628      	mov	r0, r5
   82444:	4c03      	ldr	r4, [pc, #12]	; (82454 <pio_configure_pin_group+0x98>)
   82446:	47a0      	blx	r4
   82448:	2001      	movs	r0, #1
   8244a:	e7e7      	b.n	8241c <pio_configure_pin_group+0x60>
   8244c:	0008224d 	.word	0x0008224d
   82450:	0008228b 	.word	0x0008228b
   82454:	000822bd 	.word	0x000822bd

00082458 <pio_handler_process>:
   82458:	e92d 41f0 	stmdb	sp!, {r4, r5, r6, r7, r8, lr}
   8245c:	4604      	mov	r4, r0
   8245e:	4688      	mov	r8, r1
   82460:	4b0e      	ldr	r3, [pc, #56]	; (8249c <pio_handler_process+0x44>)
   82462:	4798      	blx	r3
   82464:	4605      	mov	r5, r0
   82466:	4620      	mov	r0, r4
   82468:	4b0d      	ldr	r3, [pc, #52]	; (824a0 <pio_handler_process+0x48>)
   8246a:	4798      	blx	r3
   8246c:	4005      	ands	r5, r0
   8246e:	d013      	beq.n	82498 <pio_handler_process+0x40>
   82470:	4c0c      	ldr	r4, [pc, #48]	; (824a4 <pio_handler_process+0x4c>)
   82472:	f104 0660 	add.w	r6, r4, #96	; 0x60
   82476:	e003      	b.n	82480 <pio_handler_process+0x28>
   82478:	42b4      	cmp	r4, r6
   8247a:	d00d      	beq.n	82498 <pio_handler_process+0x40>
   8247c:	3410      	adds	r4, #16
   8247e:	b15d      	cbz	r5, 82498 <pio_handler_process+0x40>
   82480:	6820      	ldr	r0, [r4, #0]
   82482:	4540      	cmp	r0, r8
   82484:	d1f8      	bne.n	82478 <pio_handler_process+0x20>
   82486:	6861      	ldr	r1, [r4, #4]
   82488:	4229      	tst	r1, r5
   8248a:	d0f5      	beq.n	82478 <pio_handler_process+0x20>
   8248c:	68e3      	ldr	r3, [r4, #12]
   8248e:	4798      	blx	r3
   82490:	6863      	ldr	r3, [r4, #4]
   82492:	ea25 0503 	bic.w	r5, r5, r3
   82496:	e7ef      	b.n	82478 <pio_handler_process+0x20>
   82498:	e8bd 81f0 	ldmia.w	sp!, {r4, r5, r6, r7, r8, pc}
   8249c:	000822e3 	.word	0x000822e3
   824a0:	000822e7 	.word	0x000822e7
   824a4:	2007c2e0 	.word	0x2007c2e0

000824a8 <PIOA_Handler>:
   824a8:	b508      	push	{r3, lr}
   824aa:	210b      	movs	r1, #11
   824ac:	4801      	ldr	r0, [pc, #4]	; (824b4 <PIOA_Handler+0xc>)
   824ae:	4b02      	ldr	r3, [pc, #8]	; (824b8 <PIOA_Handler+0x10>)
   824b0:	4798      	blx	r3
   824b2:	bd08      	pop	{r3, pc}
   824b4:	400e0e00 	.word	0x400e0e00
   824b8:	00082459 	.word	0x00082459

000824bc <PIOB_Handler>:
   824bc:	b508      	push	{r3, lr}
   824be:	210c      	movs	r1, #12
   824c0:	4801      	ldr	r0, [pc, #4]	; (824c8 <PIOB_Handler+0xc>)
   824c2:	4b02      	ldr	r3, [pc, #8]	; (824cc <PIOB_Handler+0x10>)
   824c4:	4798      	blx	r3
   824c6:	bd08      	pop	{r3, pc}
   824c8:	400e1000 	.word	0x400e1000
   824cc:	00082459 	.word	0x00082459

000824d0 <PIOC_Handler>:
   824d0:	b508      	push	{r3, lr}
   824d2:	210d      	movs	r1, #13
   824d4:	4801      	ldr	r0, [pc, #4]	; (824dc <PIOC_Handler+0xc>)
   824d6:	4b02      	ldr	r3, [pc, #8]	; (824e0 <PIOC_Handler+0x10>)
   824d8:	4798      	blx	r3
   824da:	bd08      	pop	{r3, pc}
   824dc:	400e1200 	.word	0x400e1200
   824e0:	00082459 	.word	0x00082459

000824e4 <PIOD_Handler>:
   824e4:	b508      	push	{r3, lr}
   824e6:	210e      	movs	r1, #14
   824e8:	4801      	ldr	r0, [pc, #4]	; (824f0 <PIOD_Handler+0xc>)
   824ea:	4b02      	ldr	r3, [pc, #8]	; (824f4 <PIOD_Handler+0x10>)
   824ec:	4798      	blx	r3
   824ee:	bd08      	pop	{r3, pc}
   824f0:	400e1400 	.word	0x400e1400
   824f4:	00082459 	.word	0x00082459

000824f8 <pmc_switch_mck_to_pllack>:
   824f8:	4a17      	ldr	r2, [pc, #92]	; (82558 <pmc_switch_mck_to_pllack+0x60>)
   824fa:	6b13      	ldr	r3, [r2, #48]	; 0x30
   824fc:	f023 0370 	bic.w	r3, r3, #112	; 0x70
   82500:	4318      	orrs	r0, r3
   82502:	6310      	str	r0, [r2, #48]	; 0x30
   82504:	6e93      	ldr	r3, [r2, #104]	; 0x68
   82506:	f013 0f08 	tst.w	r3, #8
   8250a:	d10a      	bne.n	82522 <pmc_switch_mck_to_pllack+0x2a>
   8250c:	f44f 6300 	mov.w	r3, #2048	; 0x800
   82510:	4911      	ldr	r1, [pc, #68]	; (82558 <pmc_switch_mck_to_pllack+0x60>)
   82512:	6e8a      	ldr	r2, [r1, #104]	; 0x68
   82514:	f012 0f08 	tst.w	r2, #8
   82518:	d103      	bne.n	82522 <pmc_switch_mck_to_pllack+0x2a>
   8251a:	3b01      	subs	r3, #1
   8251c:	d1f9      	bne.n	82512 <pmc_switch_mck_to_pllack+0x1a>
   8251e:	2001      	movs	r0, #1
   82520:	4770      	bx	lr
   82522:	4a0d      	ldr	r2, [pc, #52]	; (82558 <pmc_switch_mck_to_pllack+0x60>)
   82524:	6b13      	ldr	r3, [r2, #48]	; 0x30
   82526:	f023 0303 	bic.w	r3, r3, #3
   8252a:	f043 0302 	orr.w	r3, r3, #2
   8252e:	6313      	str	r3, [r2, #48]	; 0x30
   82530:	6e93      	ldr	r3, [r2, #104]	; 0x68
   82532:	f013 0f08 	tst.w	r3, #8
   82536:	d10a      	bne.n	8254e <pmc_switch_mck_to_pllack+0x56>
   82538:	f44f 6300 	mov.w	r3, #2048	; 0x800
   8253c:	4906      	ldr	r1, [pc, #24]	; (82558 <pmc_switch_mck_to_pllack+0x60>)
   8253e:	6e8a      	ldr	r2, [r1, #104]	; 0x68
   82540:	f012 0f08 	tst.w	r2, #8
   82544:	d105      	bne.n	82552 <pmc_switch_mck_to_pllack+0x5a>
   82546:	3b01      	subs	r3, #1
   82548:	d1f9      	bne.n	8253e <pmc_switch_mck_to_pllack+0x46>
   8254a:	2001      	movs	r0, #1
   8254c:	4770      	bx	lr
   8254e:	2000      	movs	r0, #0
   82550:	4770      	bx	lr
   82552:	2000      	movs	r0, #0
   82554:	4770      	bx	lr
   82556:	bf00      	nop
   82558:	400e0600 	.word	0x400e0600

0008255c <pmc_switch_mainck_to_xtal>:
   8255c:	b9c8      	cbnz	r0, 82592 <pmc_switch_mainck_to_xtal+0x36>
   8255e:	4a11      	ldr	r2, [pc, #68]	; (825a4 <pmc_switch_mainck_to_xtal+0x48>)
   82560:	6a13      	ldr	r3, [r2, #32]
   82562:	0209      	lsls	r1, r1, #8
   82564:	b289      	uxth	r1, r1
   82566:	f423 135c 	bic.w	r3, r3, #3604480	; 0x370000
   8256a:	f023 0303 	bic.w	r3, r3, #3
   8256e:	f443 135c 	orr.w	r3, r3, #3604480	; 0x370000
   82572:	f043 0301 	orr.w	r3, r3, #1
   82576:	430b      	orrs	r3, r1
   82578:	6213      	str	r3, [r2, #32]
   8257a:	6e93      	ldr	r3, [r2, #104]	; 0x68
   8257c:	f013 0f01 	tst.w	r3, #1
   82580:	d0fb      	beq.n	8257a <pmc_switch_mainck_to_xtal+0x1e>
   82582:	4a08      	ldr	r2, [pc, #32]	; (825a4 <pmc_switch_mainck_to_xtal+0x48>)
   82584:	6a13      	ldr	r3, [r2, #32]
   82586:	f043 739b 	orr.w	r3, r3, #20316160	; 0x1360000
   8258a:	f443 3380 	orr.w	r3, r3, #65536	; 0x10000
   8258e:	6213      	str	r3, [r2, #32]
   82590:	4770      	bx	lr
   82592:	4904      	ldr	r1, [pc, #16]	; (825a4 <pmc_switch_mainck_to_xtal+0x48>)
   82594:	6a0b      	ldr	r3, [r1, #32]
   82596:	4a04      	ldr	r2, [pc, #16]	; (825a8 <pmc_switch_mainck_to_xtal+0x4c>)
   82598:	401a      	ands	r2, r3
   8259a:	4b04      	ldr	r3, [pc, #16]	; (825ac <pmc_switch_mainck_to_xtal+0x50>)
   8259c:	4313      	orrs	r3, r2
   8259e:	620b      	str	r3, [r1, #32]
   825a0:	4770      	bx	lr
   825a2:	bf00      	nop
   825a4:	400e0600 	.word	0x400e0600
   825a8:	fec8fffc 	.word	0xfec8fffc
   825ac:	01370002 	.word	0x01370002

000825b0 <pmc_osc_is_ready_mainck>:
   825b0:	4b02      	ldr	r3, [pc, #8]	; (825bc <pmc_osc_is_ready_mainck+0xc>)
   825b2:	6e98      	ldr	r0, [r3, #104]	; 0x68
   825b4:	f400 3080 	and.w	r0, r0, #65536	; 0x10000
   825b8:	4770      	bx	lr
   825ba:	bf00      	nop
   825bc:	400e0600 	.word	0x400e0600

000825c0 <pmc_disable_pllack>:
   825c0:	f04f 5200 	mov.w	r2, #536870912	; 0x20000000
   825c4:	4b01      	ldr	r3, [pc, #4]	; (825cc <pmc_disable_pllack+0xc>)
   825c6:	629a      	str	r2, [r3, #40]	; 0x28
   825c8:	4770      	bx	lr
   825ca:	bf00      	nop
   825cc:	400e0600 	.word	0x400e0600

000825d0 <pmc_is_locked_pllack>:
   825d0:	4b02      	ldr	r3, [pc, #8]	; (825dc <pmc_is_locked_pllack+0xc>)
   825d2:	6e98      	ldr	r0, [r3, #104]	; 0x68
   825d4:	f000 0002 	and.w	r0, r0, #2
   825d8:	4770      	bx	lr
   825da:	bf00      	nop
   825dc:	400e0600 	.word	0x400e0600

000825e0 <pmc_enable_periph_clk>:
   825e0:	f000 007f 	and.w	r0, r0, #127	; 0x7f
   825e4:	4b05      	ldr	r3, [pc, #20]	; (825fc <pmc_enable_periph_clk+0x1c>)
   825e6:	f8c3 010c 	str.w	r0, [r3, #268]	; 0x10c
   825ea:	f8d3 210c 	ldr.w	r2, [r3, #268]	; 0x10c
   825ee:	f042 2210 	orr.w	r2, r2, #268439552	; 0x10001000
   825f2:	f8c3 210c 	str.w	r2, [r3, #268]	; 0x10c
   825f6:	2000      	movs	r0, #0
   825f8:	4770      	bx	lr
   825fa:	bf00      	nop
   825fc:	400e0600 	.word	0x400e0600

00082600 <Dummy_Handler>:
   82600:	e7fe      	b.n	82600 <Dummy_Handler>
	...

00082604 <Reset_Handler>:
   82604:	b508      	push	{r3, lr}
   82606:	4b1c      	ldr	r3, [pc, #112]	; (82678 <Reset_Handler+0x74>)
   82608:	4a1c      	ldr	r2, [pc, #112]	; (8267c <Reset_Handler+0x78>)
   8260a:	429a      	cmp	r2, r3
   8260c:	d010      	beq.n	82630 <Reset_Handler+0x2c>
   8260e:	4b1c      	ldr	r3, [pc, #112]	; (82680 <Reset_Handler+0x7c>)
   82610:	4a19      	ldr	r2, [pc, #100]	; (82678 <Reset_Handler+0x74>)
   82612:	429a      	cmp	r2, r3
   82614:	d20c      	bcs.n	82630 <Reset_Handler+0x2c>
   82616:	3b01      	subs	r3, #1
   82618:	1a9b      	subs	r3, r3, r2
   8261a:	f023 0303 	bic.w	r3, r3, #3
   8261e:	3304      	adds	r3, #4
   82620:	4413      	add	r3, r2
   82622:	4916      	ldr	r1, [pc, #88]	; (8267c <Reset_Handler+0x78>)
   82624:	f851 0b04 	ldr.w	r0, [r1], #4
   82628:	f842 0b04 	str.w	r0, [r2], #4
   8262c:	429a      	cmp	r2, r3
   8262e:	d1f9      	bne.n	82624 <Reset_Handler+0x20>
   82630:	4b14      	ldr	r3, [pc, #80]	; (82684 <Reset_Handler+0x80>)
   82632:	4a15      	ldr	r2, [pc, #84]	; (82688 <Reset_Handler+0x84>)
   82634:	429a      	cmp	r2, r3
   82636:	d20a      	bcs.n	8264e <Reset_Handler+0x4a>
   82638:	3b01      	subs	r3, #1
   8263a:	1a9b      	subs	r3, r3, r2
   8263c:	f023 0303 	bic.w	r3, r3, #3
   82640:	3304      	adds	r3, #4
   82642:	4413      	add	r3, r2
   82644:	2100      	movs	r1, #0
   82646:	f842 1b04 	str.w	r1, [r2], #4
   8264a:	4293      	cmp	r3, r2
   8264c:	d1fb      	bne.n	82646 <Reset_Handler+0x42>
   8264e:	4b0f      	ldr	r3, [pc, #60]	; (8268c <Reset_Handler+0x88>)
   82650:	f023 4260 	bic.w	r2, r3, #3758096384	; 0xe0000000
   82654:	f022 027f 	bic.w	r2, r2, #127	; 0x7f
   82658:	490d      	ldr	r1, [pc, #52]	; (82690 <Reset_Handler+0x8c>)
   8265a:	608a      	str	r2, [r1, #8]
   8265c:	f103 4360 	add.w	r3, r3, #3758096384	; 0xe0000000
   82660:	f5b3 1f80 	cmp.w	r3, #1048576	; 0x100000
   82664:	d203      	bcs.n	8266e <Reset_Handler+0x6a>
   82666:	688b      	ldr	r3, [r1, #8]
   82668:	f043 5300 	orr.w	r3, r3, #536870912	; 0x20000000
   8266c:	608b      	str	r3, [r1, #8]
   8266e:	4b09      	ldr	r3, [pc, #36]	; (82694 <Reset_Handler+0x90>)
   82670:	4798      	blx	r3
   82672:	4b09      	ldr	r3, [pc, #36]	; (82698 <Reset_Handler+0x94>)
   82674:	4798      	blx	r3
   82676:	e7fe      	b.n	82676 <Reset_Handler+0x72>
   82678:	20070000 	.word	0x20070000
   8267c:	00083b40 	.word	0x00083b40
   82680:	20070974 	.word	0x20070974
   82684:	2007c400 	.word	0x2007c400
   82688:	20070974 	.word	0x20070974
   8268c:	00080000 	.word	0x00080000
   82690:	e000ed00 	.word	0xe000ed00
   82694:	000828f1 	.word	0x000828f1
   82698:	000828b9 	.word	0x000828b9

0008269c <SystemCoreClockUpdate>:
   8269c:	4b3d      	ldr	r3, [pc, #244]	; (82794 <SystemCoreClockUpdate+0xf8>)
   8269e:	6b1b      	ldr	r3, [r3, #48]	; 0x30
   826a0:	f003 0303 	and.w	r3, r3, #3
   826a4:	2b03      	cmp	r3, #3
   826a6:	d80e      	bhi.n	826c6 <SystemCoreClockUpdate+0x2a>
   826a8:	e8df f003 	tbb	[pc, r3]
   826ac:	38381c02 	.word	0x38381c02
   826b0:	4b39      	ldr	r3, [pc, #228]	; (82798 <SystemCoreClockUpdate+0xfc>)
   826b2:	695b      	ldr	r3, [r3, #20]
   826b4:	f013 0f80 	tst.w	r3, #128	; 0x80
   826b8:	bf14      	ite	ne
   826ba:	f44f 4200 	movne.w	r2, #32768	; 0x8000
   826be:	f44f 42fa 	moveq.w	r2, #32000	; 0x7d00
   826c2:	4b36      	ldr	r3, [pc, #216]	; (8279c <SystemCoreClockUpdate+0x100>)
   826c4:	601a      	str	r2, [r3, #0]
   826c6:	4b33      	ldr	r3, [pc, #204]	; (82794 <SystemCoreClockUpdate+0xf8>)
   826c8:	6b1b      	ldr	r3, [r3, #48]	; 0x30
   826ca:	f003 0370 	and.w	r3, r3, #112	; 0x70
   826ce:	2b70      	cmp	r3, #112	; 0x70
   826d0:	d057      	beq.n	82782 <SystemCoreClockUpdate+0xe6>
   826d2:	4b30      	ldr	r3, [pc, #192]	; (82794 <SystemCoreClockUpdate+0xf8>)
   826d4:	6b1a      	ldr	r2, [r3, #48]	; 0x30
   826d6:	4931      	ldr	r1, [pc, #196]	; (8279c <SystemCoreClockUpdate+0x100>)
   826d8:	f3c2 1202 	ubfx	r2, r2, #4, #3
   826dc:	680b      	ldr	r3, [r1, #0]
   826de:	40d3      	lsrs	r3, r2
   826e0:	600b      	str	r3, [r1, #0]
   826e2:	4770      	bx	lr
   826e4:	4b2b      	ldr	r3, [pc, #172]	; (82794 <SystemCoreClockUpdate+0xf8>)
   826e6:	6a1b      	ldr	r3, [r3, #32]
   826e8:	f013 7f80 	tst.w	r3, #16777216	; 0x1000000
   826ec:	d003      	beq.n	826f6 <SystemCoreClockUpdate+0x5a>
   826ee:	4a2c      	ldr	r2, [pc, #176]	; (827a0 <SystemCoreClockUpdate+0x104>)
   826f0:	4b2a      	ldr	r3, [pc, #168]	; (8279c <SystemCoreClockUpdate+0x100>)
   826f2:	601a      	str	r2, [r3, #0]
   826f4:	e7e7      	b.n	826c6 <SystemCoreClockUpdate+0x2a>
   826f6:	4a2b      	ldr	r2, [pc, #172]	; (827a4 <SystemCoreClockUpdate+0x108>)
   826f8:	4b28      	ldr	r3, [pc, #160]	; (8279c <SystemCoreClockUpdate+0x100>)
   826fa:	601a      	str	r2, [r3, #0]
   826fc:	4b25      	ldr	r3, [pc, #148]	; (82794 <SystemCoreClockUpdate+0xf8>)
   826fe:	6a1b      	ldr	r3, [r3, #32]
   82700:	f003 0370 	and.w	r3, r3, #112	; 0x70
   82704:	2b10      	cmp	r3, #16
   82706:	d005      	beq.n	82714 <SystemCoreClockUpdate+0x78>
   82708:	2b20      	cmp	r3, #32
   8270a:	d1dc      	bne.n	826c6 <SystemCoreClockUpdate+0x2a>
   8270c:	4a24      	ldr	r2, [pc, #144]	; (827a0 <SystemCoreClockUpdate+0x104>)
   8270e:	4b23      	ldr	r3, [pc, #140]	; (8279c <SystemCoreClockUpdate+0x100>)
   82710:	601a      	str	r2, [r3, #0]
   82712:	e7d8      	b.n	826c6 <SystemCoreClockUpdate+0x2a>
   82714:	4a24      	ldr	r2, [pc, #144]	; (827a8 <SystemCoreClockUpdate+0x10c>)
   82716:	4b21      	ldr	r3, [pc, #132]	; (8279c <SystemCoreClockUpdate+0x100>)
   82718:	601a      	str	r2, [r3, #0]
   8271a:	e7d4      	b.n	826c6 <SystemCoreClockUpdate+0x2a>
   8271c:	4b1d      	ldr	r3, [pc, #116]	; (82794 <SystemCoreClockUpdate+0xf8>)
   8271e:	6a1b      	ldr	r3, [r3, #32]
   82720:	f013 7f80 	tst.w	r3, #16777216	; 0x1000000
   82724:	d00c      	beq.n	82740 <SystemCoreClockUpdate+0xa4>
   82726:	4a1e      	ldr	r2, [pc, #120]	; (827a0 <SystemCoreClockUpdate+0x104>)
   82728:	4b1c      	ldr	r3, [pc, #112]	; (8279c <SystemCoreClockUpdate+0x100>)
   8272a:	601a      	str	r2, [r3, #0]
   8272c:	4b19      	ldr	r3, [pc, #100]	; (82794 <SystemCoreClockUpdate+0xf8>)
   8272e:	6b1b      	ldr	r3, [r3, #48]	; 0x30
   82730:	f003 0303 	and.w	r3, r3, #3
   82734:	2b02      	cmp	r3, #2
   82736:	d016      	beq.n	82766 <SystemCoreClockUpdate+0xca>
   82738:	4a1c      	ldr	r2, [pc, #112]	; (827ac <SystemCoreClockUpdate+0x110>)
   8273a:	4b18      	ldr	r3, [pc, #96]	; (8279c <SystemCoreClockUpdate+0x100>)
   8273c:	601a      	str	r2, [r3, #0]
   8273e:	e7c2      	b.n	826c6 <SystemCoreClockUpdate+0x2a>
   82740:	4a18      	ldr	r2, [pc, #96]	; (827a4 <SystemCoreClockUpdate+0x108>)
   82742:	4b16      	ldr	r3, [pc, #88]	; (8279c <SystemCoreClockUpdate+0x100>)
   82744:	601a      	str	r2, [r3, #0]
   82746:	4b13      	ldr	r3, [pc, #76]	; (82794 <SystemCoreClockUpdate+0xf8>)
   82748:	6a1b      	ldr	r3, [r3, #32]
   8274a:	f003 0370 	and.w	r3, r3, #112	; 0x70
   8274e:	2b10      	cmp	r3, #16
   82750:	d005      	beq.n	8275e <SystemCoreClockUpdate+0xc2>
   82752:	2b20      	cmp	r3, #32
   82754:	d1ea      	bne.n	8272c <SystemCoreClockUpdate+0x90>
   82756:	4a12      	ldr	r2, [pc, #72]	; (827a0 <SystemCoreClockUpdate+0x104>)
   82758:	4b10      	ldr	r3, [pc, #64]	; (8279c <SystemCoreClockUpdate+0x100>)
   8275a:	601a      	str	r2, [r3, #0]
   8275c:	e7e6      	b.n	8272c <SystemCoreClockUpdate+0x90>
   8275e:	4a12      	ldr	r2, [pc, #72]	; (827a8 <SystemCoreClockUpdate+0x10c>)
   82760:	4b0e      	ldr	r3, [pc, #56]	; (8279c <SystemCoreClockUpdate+0x100>)
   82762:	601a      	str	r2, [r3, #0]
   82764:	e7e2      	b.n	8272c <SystemCoreClockUpdate+0x90>
   82766:	4a0b      	ldr	r2, [pc, #44]	; (82794 <SystemCoreClockUpdate+0xf8>)
   82768:	6a91      	ldr	r1, [r2, #40]	; 0x28
   8276a:	6a92      	ldr	r2, [r2, #40]	; 0x28
   8276c:	480b      	ldr	r0, [pc, #44]	; (8279c <SystemCoreClockUpdate+0x100>)
   8276e:	f3c1 410a 	ubfx	r1, r1, #16, #11
   82772:	6803      	ldr	r3, [r0, #0]
   82774:	fb01 3303 	mla	r3, r1, r3, r3
   82778:	b2d2      	uxtb	r2, r2
   8277a:	fbb3 f3f2 	udiv	r3, r3, r2
   8277e:	6003      	str	r3, [r0, #0]
   82780:	e7a1      	b.n	826c6 <SystemCoreClockUpdate+0x2a>
   82782:	4a06      	ldr	r2, [pc, #24]	; (8279c <SystemCoreClockUpdate+0x100>)
   82784:	6813      	ldr	r3, [r2, #0]
   82786:	490a      	ldr	r1, [pc, #40]	; (827b0 <SystemCoreClockUpdate+0x114>)
   82788:	fba1 1303 	umull	r1, r3, r1, r3
   8278c:	085b      	lsrs	r3, r3, #1
   8278e:	6013      	str	r3, [r2, #0]
   82790:	4770      	bx	lr
   82792:	bf00      	nop
   82794:	400e0600 	.word	0x400e0600
   82798:	400e1a10 	.word	0x400e1a10
   8279c:	20070130 	.word	0x20070130
   827a0:	00b71b00 	.word	0x00b71b00
   827a4:	003d0900 	.word	0x003d0900
   827a8:	007a1200 	.word	0x007a1200
   827ac:	0e4e1c00 	.word	0x0e4e1c00
   827b0:	aaaaaaab 	.word	0xaaaaaaab

000827b4 <_sbrk>:
   827b4:	4b0a      	ldr	r3, [pc, #40]	; (827e0 <_sbrk+0x2c>)
   827b6:	681b      	ldr	r3, [r3, #0]
   827b8:	b153      	cbz	r3, 827d0 <_sbrk+0x1c>
   827ba:	4b09      	ldr	r3, [pc, #36]	; (827e0 <_sbrk+0x2c>)
   827bc:	681b      	ldr	r3, [r3, #0]
   827be:	181a      	adds	r2, r3, r0
   827c0:	4908      	ldr	r1, [pc, #32]	; (827e4 <_sbrk+0x30>)
   827c2:	4291      	cmp	r1, r2
   827c4:	db08      	blt.n	827d8 <_sbrk+0x24>
   827c6:	4610      	mov	r0, r2
   827c8:	4a05      	ldr	r2, [pc, #20]	; (827e0 <_sbrk+0x2c>)
   827ca:	6010      	str	r0, [r2, #0]
   827cc:	4618      	mov	r0, r3
   827ce:	4770      	bx	lr
   827d0:	4a05      	ldr	r2, [pc, #20]	; (827e8 <_sbrk+0x34>)
   827d2:	4b03      	ldr	r3, [pc, #12]	; (827e0 <_sbrk+0x2c>)
   827d4:	601a      	str	r2, [r3, #0]
   827d6:	e7f0      	b.n	827ba <_sbrk+0x6>
   827d8:	f04f 30ff 	mov.w	r0, #4294967295
   827dc:	4770      	bx	lr
   827de:	bf00      	nop
   827e0:	2007c350 	.word	0x2007c350
   827e4:	20087ffc 	.word	0x20087ffc
   827e8:	2007e400 	.word	0x2007e400

000827ec <_close>:
   827ec:	f04f 30ff 	mov.w	r0, #4294967295
   827f0:	4770      	bx	lr

000827f2 <_fstat>:
   827f2:	f44f 5300 	mov.w	r3, #8192	; 0x2000
   827f6:	604b      	str	r3, [r1, #4]
   827f8:	2000      	movs	r0, #0
   827fa:	4770      	bx	lr

000827fc <_lseek>:
   827fc:	2000      	movs	r0, #0
   827fe:	4770      	bx	lr

00082800 <writer1>:
#include <writer1.h>
#include <writer2.h>

void writer1(void*);

void writer1 (void *pvParameters) {
   82800:	b500      	push	{lr}
   82802:	b085      	sub	sp, #20
	portTickType xLastWakeTime ;
	xLastWakeTime = xTaskGetTickCount();
   82804:	4b07      	ldr	r3, [pc, #28]	; (82824 <writer1+0x24>)
   82806:	4798      	blx	r3
   82808:	9003      	str	r0, [sp, #12]
	char cStr[] = "Vad bra "; 	/* Creates the string to be printed to the console */
   8280a:	4a07      	ldr	r2, [pc, #28]	; (82828 <writer1+0x28>)
   8280c:	466b      	mov	r3, sp
   8280e:	ca07      	ldmia	r2, {r0, r1, r2}
   82810:	c303      	stmia	r3!, {r0, r1}
   82812:	701a      	strb	r2, [r3, #0]
	
	for(;;) {
		
		printfConsole(cStr);	/* Calls the printing function defined in the console_po.c file */
   82814:	4d05      	ldr	r5, [pc, #20]	; (8282c <writer1+0x2c>)
		vTaskDelayUntil(&xLastWakeTime, (writer1Period/portTICK_PERIOD_MS));
   82816:	4c06      	ldr	r4, [pc, #24]	; (82830 <writer1+0x30>)
		printfConsole(cStr);	/* Calls the printing function defined in the console_po.c file */
   82818:	4668      	mov	r0, sp
   8281a:	47a8      	blx	r5
		vTaskDelayUntil(&xLastWakeTime, (writer1Period/portTICK_PERIOD_MS));
   8281c:	2101      	movs	r1, #1
   8281e:	a803      	add	r0, sp, #12
   82820:	47a0      	blx	r4
   82822:	e7f9      	b.n	82818 <writer1+0x18>
   82824:	0008156d 	.word	0x0008156d
   82828:	00083ae4 	.word	0x00083ae4
   8282c:	00080361 	.word	0x00080361
   82830:	000817c1 	.word	0x000817c1

00082834 <init_writer1>:
	}
	
	vTaskDelete( NULL );
}
	
void init_writer1() {
   82834:	b510      	push	{r4, lr}
   82836:	b082      	sub	sp, #8
	/* Create task */
	xTaskCreate(
   82838:	2300      	movs	r3, #0
   8283a:	9301      	str	r3, [sp, #4]
   8283c:	2201      	movs	r2, #1
   8283e:	9200      	str	r2, [sp, #0]
   82840:	22fa      	movs	r2, #250	; 0xfa
   82842:	4903      	ldr	r1, [pc, #12]	; (82850 <init_writer1+0x1c>)
   82844:	4803      	ldr	r0, [pc, #12]	; (82854 <init_writer1+0x20>)
   82846:	4c04      	ldr	r4, [pc, #16]	; (82858 <init_writer1+0x24>)
   82848:	47a0      	blx	r4
	250,						/* Stack size in words, not bytes. */							
	NULL,						/* Parameter passed into the task. */
	1,							/* Priority at which the task is created. */
	NULL 						/* Used to pass out the created task's handle. */
	);
   8284a:	b002      	add	sp, #8
   8284c:	bd10      	pop	{r4, pc}
   8284e:	bf00      	nop
   82850:	00083acc 	.word	0x00083acc
   82854:	00082801 	.word	0x00082801
   82858:	000812dd 	.word	0x000812dd

0008285c <writer2>:


void writer2 (void*);


void writer2 (void *pvParameters) {
   8285c:	b500      	push	{lr}
   8285e:	b087      	sub	sp, #28
	
	char cStr[] = "Mycket kaffe "; 	/* Creates the string to be printed to the console */
   82860:	4b07      	ldr	r3, [pc, #28]	; (82880 <writer2+0x24>)
   82862:	ac02      	add	r4, sp, #8
   82864:	cb0f      	ldmia	r3, {r0, r1, r2, r3}
   82866:	c407      	stmia	r4!, {r0, r1, r2}
   82868:	8023      	strh	r3, [r4, #0]
	
	portTickType xLastWakeTime ;
	xLastWakeTime = xTaskGetTickCount();
   8286a:	4b06      	ldr	r3, [pc, #24]	; (82884 <writer2+0x28>)
   8286c:	4798      	blx	r3
   8286e:	9001      	str	r0, [sp, #4]
	
	for(;;) {
		
		printfConsole(cStr);	/* Calls the printing function defined in the console_po.c file */
   82870:	4d05      	ldr	r5, [pc, #20]	; (82888 <writer2+0x2c>)
		vTaskDelayUntil(&xLastWakeTime, (writer2Period/portTICK_PERIOD_MS));
   82872:	4c06      	ldr	r4, [pc, #24]	; (8288c <writer2+0x30>)
		printfConsole(cStr);	/* Calls the printing function defined in the console_po.c file */
   82874:	a802      	add	r0, sp, #8
   82876:	47a8      	blx	r5
		vTaskDelayUntil(&xLastWakeTime, (writer2Period/portTICK_PERIOD_MS));
   82878:	2101      	movs	r1, #1
   8287a:	a801      	add	r0, sp, #4
   8287c:	47a0      	blx	r4
   8287e:	e7f9      	b.n	82874 <writer2+0x18>
   82880:	00083b08 	.word	0x00083b08
   82884:	0008156d 	.word	0x0008156d
   82888:	00080361 	.word	0x00080361
   8288c:	000817c1 	.word	0x000817c1

00082890 <init_writer2>:
	
	vTaskDelete( NULL );
}


void init_writer2() {
   82890:	b510      	push	{r4, lr}
   82892:	b082      	sub	sp, #8
	/* Create task */
	xTaskCreate(
   82894:	2300      	movs	r3, #0
   82896:	9301      	str	r3, [sp, #4]
   82898:	2201      	movs	r2, #1
   8289a:	9200      	str	r2, [sp, #0]
   8289c:	22fa      	movs	r2, #250	; 0xfa
   8289e:	4903      	ldr	r1, [pc, #12]	; (828ac <init_writer2+0x1c>)
   828a0:	4803      	ldr	r0, [pc, #12]	; (828b0 <init_writer2+0x20>)
   828a2:	4c04      	ldr	r4, [pc, #16]	; (828b4 <init_writer2+0x24>)
   828a4:	47a0      	blx	r4
	250,						/* Stack size in words, not bytes. */								// What's this?
	NULL,						/* Parameter passed into the task. */
	1,							/* Priority at which the task is created. */
	NULL 						/* Used to pass out the created task's handle. */
	);
   828a6:	b002      	add	sp, #8
   828a8:	bd10      	pop	{r4, pc}
   828aa:	bf00      	nop
   828ac:	00083af0 	.word	0x00083af0
   828b0:	0008285d 	.word	0x0008285d
   828b4:	000812dd 	.word	0x000812dd

000828b8 <main>:

#include <writer1.h>
#include <writer2.h>

int main (void)
{
   828b8:	b508      	push	{r3, lr}
	/* System clock initialization */
	sysclk_init();
   828ba:	4b07      	ldr	r3, [pc, #28]	; (828d8 <main+0x20>)
   828bc:	4798      	blx	r3
	
	/* Board peripherals initialization */
	board_init();
   828be:	4b07      	ldr	r3, [pc, #28]	; (828dc <main+0x24>)
   828c0:	4798      	blx	r3
	
	/* Init UART console */
	console_init();
   828c2:	4b07      	ldr	r3, [pc, #28]	; (828e0 <main+0x28>)
   828c4:	4798      	blx	r3
	/* Init tasks */
	init_writer1();
   828c6:	4b07      	ldr	r3, [pc, #28]	; (828e4 <main+0x2c>)
   828c8:	4798      	blx	r3
	init_writer2();
   828ca:	4b07      	ldr	r3, [pc, #28]	; (828e8 <main+0x30>)
   828cc:	4798      	blx	r3
	
	/* Start scheduler */
	vTaskStartScheduler();
   828ce:	4b07      	ldr	r3, [pc, #28]	; (828ec <main+0x34>)
   828d0:	4798      	blx	r3
	
	/* Should never reach here ... */
	return 1;
}
   828d2:	2001      	movs	r0, #1
   828d4:	bd08      	pop	{r3, pc}
   828d6:	bf00      	nop
   828d8:	00082169 	.word	0x00082169
   828dc:	000821cd 	.word	0x000821cd
   828e0:	000803a9 	.word	0x000803a9
   828e4:	00082835 	.word	0x00082835
   828e8:	00082891 	.word	0x00082891
   828ec:	000814d1 	.word	0x000814d1

000828f0 <__libc_init_array>:
   828f0:	b570      	push	{r4, r5, r6, lr}
   828f2:	4e0f      	ldr	r6, [pc, #60]	; (82930 <__libc_init_array+0x40>)
   828f4:	4d0f      	ldr	r5, [pc, #60]	; (82934 <__libc_init_array+0x44>)
   828f6:	1b76      	subs	r6, r6, r5
   828f8:	10b6      	asrs	r6, r6, #2
   828fa:	bf18      	it	ne
   828fc:	2400      	movne	r4, #0
   828fe:	d005      	beq.n	8290c <__libc_init_array+0x1c>
   82900:	3401      	adds	r4, #1
   82902:	f855 3b04 	ldr.w	r3, [r5], #4
   82906:	4798      	blx	r3
   82908:	42a6      	cmp	r6, r4
   8290a:	d1f9      	bne.n	82900 <__libc_init_array+0x10>
   8290c:	4e0a      	ldr	r6, [pc, #40]	; (82938 <__libc_init_array+0x48>)
   8290e:	4d0b      	ldr	r5, [pc, #44]	; (8293c <__libc_init_array+0x4c>)
   82910:	f001 f904 	bl	83b1c <_init>
   82914:	1b76      	subs	r6, r6, r5
   82916:	10b6      	asrs	r6, r6, #2
   82918:	bf18      	it	ne
   8291a:	2400      	movne	r4, #0
   8291c:	d006      	beq.n	8292c <__libc_init_array+0x3c>
   8291e:	3401      	adds	r4, #1
   82920:	f855 3b04 	ldr.w	r3, [r5], #4
   82924:	4798      	blx	r3
   82926:	42a6      	cmp	r6, r4
   82928:	d1f9      	bne.n	8291e <__libc_init_array+0x2e>
   8292a:	bd70      	pop	{r4, r5, r6, pc}
   8292c:	bd70      	pop	{r4, r5, r6, pc}
   8292e:	bf00      	nop
   82930:	00083b28 	.word	0x00083b28
   82934:	00083b28 	.word	0x00083b28
   82938:	00083b30 	.word	0x00083b30
   8293c:	00083b28 	.word	0x00083b28

00082940 <memcpy>:
   82940:	4684      	mov	ip, r0
   82942:	ea41 0300 	orr.w	r3, r1, r0
   82946:	f013 0303 	ands.w	r3, r3, #3
   8294a:	d149      	bne.n	829e0 <memcpy+0xa0>
   8294c:	3a40      	subs	r2, #64	; 0x40
   8294e:	d323      	bcc.n	82998 <memcpy+0x58>
   82950:	680b      	ldr	r3, [r1, #0]
   82952:	6003      	str	r3, [r0, #0]
   82954:	684b      	ldr	r3, [r1, #4]
   82956:	6043      	str	r3, [r0, #4]
   82958:	688b      	ldr	r3, [r1, #8]
   8295a:	6083      	str	r3, [r0, #8]
   8295c:	68cb      	ldr	r3, [r1, #12]
   8295e:	60c3      	str	r3, [r0, #12]
   82960:	690b      	ldr	r3, [r1, #16]
   82962:	6103      	str	r3, [r0, #16]
   82964:	694b      	ldr	r3, [r1, #20]
   82966:	6143      	str	r3, [r0, #20]
   82968:	698b      	ldr	r3, [r1, #24]
   8296a:	6183      	str	r3, [r0, #24]
   8296c:	69cb      	ldr	r3, [r1, #28]
   8296e:	61c3      	str	r3, [r0, #28]
   82970:	6a0b      	ldr	r3, [r1, #32]
   82972:	6203      	str	r3, [r0, #32]
   82974:	6a4b      	ldr	r3, [r1, #36]	; 0x24
   82976:	6243      	str	r3, [r0, #36]	; 0x24
   82978:	6a8b      	ldr	r3, [r1, #40]	; 0x28
   8297a:	6283      	str	r3, [r0, #40]	; 0x28
   8297c:	6acb      	ldr	r3, [r1, #44]	; 0x2c
   8297e:	62c3      	str	r3, [r0, #44]	; 0x2c
   82980:	6b0b      	ldr	r3, [r1, #48]	; 0x30
   82982:	6303      	str	r3, [r0, #48]	; 0x30
   82984:	6b4b      	ldr	r3, [r1, #52]	; 0x34
   82986:	6343      	str	r3, [r0, #52]	; 0x34
   82988:	6b8b      	ldr	r3, [r1, #56]	; 0x38
   8298a:	6383      	str	r3, [r0, #56]	; 0x38
   8298c:	6bcb      	ldr	r3, [r1, #60]	; 0x3c
   8298e:	63c3      	str	r3, [r0, #60]	; 0x3c
   82990:	3040      	adds	r0, #64	; 0x40
   82992:	3140      	adds	r1, #64	; 0x40
   82994:	3a40      	subs	r2, #64	; 0x40
   82996:	d2db      	bcs.n	82950 <memcpy+0x10>
   82998:	3230      	adds	r2, #48	; 0x30
   8299a:	d30b      	bcc.n	829b4 <memcpy+0x74>
   8299c:	680b      	ldr	r3, [r1, #0]
   8299e:	6003      	str	r3, [r0, #0]
   829a0:	684b      	ldr	r3, [r1, #4]
   829a2:	6043      	str	r3, [r0, #4]
   829a4:	688b      	ldr	r3, [r1, #8]
   829a6:	6083      	str	r3, [r0, #8]
   829a8:	68cb      	ldr	r3, [r1, #12]
   829aa:	60c3      	str	r3, [r0, #12]
   829ac:	3010      	adds	r0, #16
   829ae:	3110      	adds	r1, #16
   829b0:	3a10      	subs	r2, #16
   829b2:	d2f3      	bcs.n	8299c <memcpy+0x5c>
   829b4:	320c      	adds	r2, #12
   829b6:	d305      	bcc.n	829c4 <memcpy+0x84>
   829b8:	f851 3b04 	ldr.w	r3, [r1], #4
   829bc:	f840 3b04 	str.w	r3, [r0], #4
   829c0:	3a04      	subs	r2, #4
   829c2:	d2f9      	bcs.n	829b8 <memcpy+0x78>
   829c4:	3204      	adds	r2, #4
   829c6:	d008      	beq.n	829da <memcpy+0x9a>
   829c8:	07d2      	lsls	r2, r2, #31
   829ca:	bf1c      	itt	ne
   829cc:	f811 3b01 	ldrbne.w	r3, [r1], #1
   829d0:	f800 3b01 	strbne.w	r3, [r0], #1
   829d4:	d301      	bcc.n	829da <memcpy+0x9a>
   829d6:	880b      	ldrh	r3, [r1, #0]
   829d8:	8003      	strh	r3, [r0, #0]
   829da:	4660      	mov	r0, ip
   829dc:	4770      	bx	lr
   829de:	bf00      	nop
   829e0:	2a08      	cmp	r2, #8
   829e2:	d313      	bcc.n	82a0c <memcpy+0xcc>
   829e4:	078b      	lsls	r3, r1, #30
   829e6:	d0b1      	beq.n	8294c <memcpy+0xc>
   829e8:	f010 0303 	ands.w	r3, r0, #3
   829ec:	d0ae      	beq.n	8294c <memcpy+0xc>
   829ee:	f1c3 0304 	rsb	r3, r3, #4
   829f2:	1ad2      	subs	r2, r2, r3
   829f4:	07db      	lsls	r3, r3, #31
   829f6:	bf1c      	itt	ne
   829f8:	f811 3b01 	ldrbne.w	r3, [r1], #1
   829fc:	f800 3b01 	strbne.w	r3, [r0], #1
   82a00:	d3a4      	bcc.n	8294c <memcpy+0xc>
   82a02:	f831 3b02 	ldrh.w	r3, [r1], #2
   82a06:	f820 3b02 	strh.w	r3, [r0], #2
   82a0a:	e79f      	b.n	8294c <memcpy+0xc>
   82a0c:	3a04      	subs	r2, #4
   82a0e:	d3d9      	bcc.n	829c4 <memcpy+0x84>
   82a10:	3a01      	subs	r2, #1
   82a12:	f811 3b01 	ldrb.w	r3, [r1], #1
   82a16:	f800 3b01 	strb.w	r3, [r0], #1
   82a1a:	d2f9      	bcs.n	82a10 <memcpy+0xd0>
   82a1c:	780b      	ldrb	r3, [r1, #0]
   82a1e:	7003      	strb	r3, [r0, #0]
   82a20:	784b      	ldrb	r3, [r1, #1]
   82a22:	7043      	strb	r3, [r0, #1]
   82a24:	788b      	ldrb	r3, [r1, #2]
   82a26:	7083      	strb	r3, [r0, #2]
   82a28:	4660      	mov	r0, ip
   82a2a:	4770      	bx	lr

00082a2c <memset>:
   82a2c:	b470      	push	{r4, r5, r6}
   82a2e:	0786      	lsls	r6, r0, #30
   82a30:	d046      	beq.n	82ac0 <memset+0x94>
   82a32:	1e54      	subs	r4, r2, #1
   82a34:	2a00      	cmp	r2, #0
   82a36:	d041      	beq.n	82abc <memset+0x90>
   82a38:	b2ca      	uxtb	r2, r1
   82a3a:	4603      	mov	r3, r0
   82a3c:	e002      	b.n	82a44 <memset+0x18>
   82a3e:	f114 34ff 	adds.w	r4, r4, #4294967295
   82a42:	d33b      	bcc.n	82abc <memset+0x90>
   82a44:	f803 2b01 	strb.w	r2, [r3], #1
   82a48:	079d      	lsls	r5, r3, #30
   82a4a:	d1f8      	bne.n	82a3e <memset+0x12>
   82a4c:	2c03      	cmp	r4, #3
   82a4e:	d92e      	bls.n	82aae <memset+0x82>
   82a50:	b2cd      	uxtb	r5, r1
   82a52:	ea45 2505 	orr.w	r5, r5, r5, lsl #8
   82a56:	2c0f      	cmp	r4, #15
   82a58:	ea45 4505 	orr.w	r5, r5, r5, lsl #16
   82a5c:	d919      	bls.n	82a92 <memset+0x66>
   82a5e:	4626      	mov	r6, r4
   82a60:	f103 0210 	add.w	r2, r3, #16
   82a64:	3e10      	subs	r6, #16
   82a66:	2e0f      	cmp	r6, #15
   82a68:	f842 5c10 	str.w	r5, [r2, #-16]
   82a6c:	f842 5c0c 	str.w	r5, [r2, #-12]
   82a70:	f842 5c08 	str.w	r5, [r2, #-8]
   82a74:	f842 5c04 	str.w	r5, [r2, #-4]
   82a78:	f102 0210 	add.w	r2, r2, #16
   82a7c:	d8f2      	bhi.n	82a64 <memset+0x38>
   82a7e:	f1a4 0210 	sub.w	r2, r4, #16
   82a82:	f022 020f 	bic.w	r2, r2, #15
   82a86:	f004 040f 	and.w	r4, r4, #15
   82a8a:	3210      	adds	r2, #16
   82a8c:	2c03      	cmp	r4, #3
   82a8e:	4413      	add	r3, r2
   82a90:	d90d      	bls.n	82aae <memset+0x82>
   82a92:	461e      	mov	r6, r3
   82a94:	4622      	mov	r2, r4
   82a96:	3a04      	subs	r2, #4
   82a98:	2a03      	cmp	r2, #3
   82a9a:	f846 5b04 	str.w	r5, [r6], #4
   82a9e:	d8fa      	bhi.n	82a96 <memset+0x6a>
   82aa0:	1f22      	subs	r2, r4, #4
   82aa2:	f022 0203 	bic.w	r2, r2, #3
   82aa6:	3204      	adds	r2, #4
   82aa8:	4413      	add	r3, r2
   82aaa:	f004 0403 	and.w	r4, r4, #3
   82aae:	b12c      	cbz	r4, 82abc <memset+0x90>
   82ab0:	b2c9      	uxtb	r1, r1
   82ab2:	441c      	add	r4, r3
   82ab4:	f803 1b01 	strb.w	r1, [r3], #1
   82ab8:	429c      	cmp	r4, r3
   82aba:	d1fb      	bne.n	82ab4 <memset+0x88>
   82abc:	bc70      	pop	{r4, r5, r6}
   82abe:	4770      	bx	lr
   82ac0:	4614      	mov	r4, r2
   82ac2:	4603      	mov	r3, r0
   82ac4:	e7c2      	b.n	82a4c <memset+0x20>
   82ac6:	bf00      	nop

00082ac8 <setbuf>:
   82ac8:	2900      	cmp	r1, #0
   82aca:	bf0c      	ite	eq
   82acc:	2202      	moveq	r2, #2
   82ace:	2200      	movne	r2, #0
   82ad0:	f44f 6380 	mov.w	r3, #1024	; 0x400
   82ad4:	f000 b800 	b.w	82ad8 <setvbuf>

00082ad8 <setvbuf>:
   82ad8:	e92d 43f0 	stmdb	sp!, {r4, r5, r6, r7, r8, r9, lr}
   82adc:	4d61      	ldr	r5, [pc, #388]	; (82c64 <setvbuf+0x18c>)
   82ade:	b083      	sub	sp, #12
   82ae0:	682d      	ldr	r5, [r5, #0]
   82ae2:	4604      	mov	r4, r0
   82ae4:	460f      	mov	r7, r1
   82ae6:	4690      	mov	r8, r2
   82ae8:	461e      	mov	r6, r3
   82aea:	b115      	cbz	r5, 82af2 <setvbuf+0x1a>
   82aec:	6bab      	ldr	r3, [r5, #56]	; 0x38
   82aee:	2b00      	cmp	r3, #0
   82af0:	d064      	beq.n	82bbc <setvbuf+0xe4>
   82af2:	f1b8 0f02 	cmp.w	r8, #2
   82af6:	d006      	beq.n	82b06 <setvbuf+0x2e>
   82af8:	f1b8 0f01 	cmp.w	r8, #1
   82afc:	f200 809f 	bhi.w	82c3e <setvbuf+0x166>
   82b00:	2e00      	cmp	r6, #0
   82b02:	f2c0 809c 	blt.w	82c3e <setvbuf+0x166>
   82b06:	6e63      	ldr	r3, [r4, #100]	; 0x64
   82b08:	07d8      	lsls	r0, r3, #31
   82b0a:	d534      	bpl.n	82b76 <setvbuf+0x9e>
   82b0c:	4621      	mov	r1, r4
   82b0e:	4628      	mov	r0, r5
   82b10:	f000 f956 	bl	82dc0 <_fflush_r>
   82b14:	6b21      	ldr	r1, [r4, #48]	; 0x30
   82b16:	b141      	cbz	r1, 82b2a <setvbuf+0x52>
   82b18:	f104 0340 	add.w	r3, r4, #64	; 0x40
   82b1c:	4299      	cmp	r1, r3
   82b1e:	d002      	beq.n	82b26 <setvbuf+0x4e>
   82b20:	4628      	mov	r0, r5
   82b22:	f000 fa4b 	bl	82fbc <_free_r>
   82b26:	2300      	movs	r3, #0
   82b28:	6323      	str	r3, [r4, #48]	; 0x30
   82b2a:	2200      	movs	r2, #0
   82b2c:	f9b4 300c 	ldrsh.w	r3, [r4, #12]
   82b30:	61a2      	str	r2, [r4, #24]
   82b32:	6062      	str	r2, [r4, #4]
   82b34:	061a      	lsls	r2, r3, #24
   82b36:	d43a      	bmi.n	82bae <setvbuf+0xd6>
   82b38:	f423 634a 	bic.w	r3, r3, #3232	; 0xca0
   82b3c:	f023 0303 	bic.w	r3, r3, #3
   82b40:	f1b8 0f02 	cmp.w	r8, #2
   82b44:	81a3      	strh	r3, [r4, #12]
   82b46:	d01d      	beq.n	82b84 <setvbuf+0xac>
   82b48:	ab01      	add	r3, sp, #4
   82b4a:	466a      	mov	r2, sp
   82b4c:	4621      	mov	r1, r4
   82b4e:	4628      	mov	r0, r5
   82b50:	f000 fb4a 	bl	831e8 <__swhatbuf_r>
   82b54:	89a3      	ldrh	r3, [r4, #12]
   82b56:	4318      	orrs	r0, r3
   82b58:	81a0      	strh	r0, [r4, #12]
   82b5a:	2e00      	cmp	r6, #0
   82b5c:	d132      	bne.n	82bc4 <setvbuf+0xec>
   82b5e:	9e00      	ldr	r6, [sp, #0]
   82b60:	4630      	mov	r0, r6
   82b62:	f000 fb6f 	bl	83244 <malloc>
   82b66:	4607      	mov	r7, r0
   82b68:	2800      	cmp	r0, #0
   82b6a:	d06b      	beq.n	82c44 <setvbuf+0x16c>
   82b6c:	89a3      	ldrh	r3, [r4, #12]
   82b6e:	f043 0380 	orr.w	r3, r3, #128	; 0x80
   82b72:	81a3      	strh	r3, [r4, #12]
   82b74:	e028      	b.n	82bc8 <setvbuf+0xf0>
   82b76:	89a3      	ldrh	r3, [r4, #12]
   82b78:	0599      	lsls	r1, r3, #22
   82b7a:	d4c7      	bmi.n	82b0c <setvbuf+0x34>
   82b7c:	6da0      	ldr	r0, [r4, #88]	; 0x58
   82b7e:	f000 fb2f 	bl	831e0 <__retarget_lock_acquire_recursive>
   82b82:	e7c3      	b.n	82b0c <setvbuf+0x34>
   82b84:	2500      	movs	r5, #0
   82b86:	2600      	movs	r6, #0
   82b88:	2001      	movs	r0, #1
   82b8a:	6e61      	ldr	r1, [r4, #100]	; 0x64
   82b8c:	f104 0243 	add.w	r2, r4, #67	; 0x43
   82b90:	f043 0302 	orr.w	r3, r3, #2
   82b94:	60a6      	str	r6, [r4, #8]
   82b96:	07ce      	lsls	r6, r1, #31
   82b98:	81a3      	strh	r3, [r4, #12]
   82b9a:	6160      	str	r0, [r4, #20]
   82b9c:	6022      	str	r2, [r4, #0]
   82b9e:	6122      	str	r2, [r4, #16]
   82ba0:	d401      	bmi.n	82ba6 <setvbuf+0xce>
   82ba2:	0598      	lsls	r0, r3, #22
   82ba4:	d53e      	bpl.n	82c24 <setvbuf+0x14c>
   82ba6:	4628      	mov	r0, r5
   82ba8:	b003      	add	sp, #12
   82baa:	e8bd 83f0 	ldmia.w	sp!, {r4, r5, r6, r7, r8, r9, pc}
   82bae:	6921      	ldr	r1, [r4, #16]
   82bb0:	4628      	mov	r0, r5
   82bb2:	f000 fa03 	bl	82fbc <_free_r>
   82bb6:	f9b4 300c 	ldrsh.w	r3, [r4, #12]
   82bba:	e7bd      	b.n	82b38 <setvbuf+0x60>
   82bbc:	4628      	mov	r0, r5
   82bbe:	f000 f957 	bl	82e70 <__sinit>
   82bc2:	e796      	b.n	82af2 <setvbuf+0x1a>
   82bc4:	2f00      	cmp	r7, #0
   82bc6:	d0cb      	beq.n	82b60 <setvbuf+0x88>
   82bc8:	6bab      	ldr	r3, [r5, #56]	; 0x38
   82bca:	2b00      	cmp	r3, #0
   82bcc:	d033      	beq.n	82c36 <setvbuf+0x15e>
   82bce:	9b00      	ldr	r3, [sp, #0]
   82bd0:	f9b4 200c 	ldrsh.w	r2, [r4, #12]
   82bd4:	429e      	cmp	r6, r3
   82bd6:	bf1c      	itt	ne
   82bd8:	f442 6200 	orrne.w	r2, r2, #2048	; 0x800
   82bdc:	81a2      	strhne	r2, [r4, #12]
   82bde:	f1b8 0f01 	cmp.w	r8, #1
   82be2:	bf04      	itt	eq
   82be4:	f042 0201 	orreq.w	r2, r2, #1
   82be8:	81a2      	strheq	r2, [r4, #12]
   82bea:	b292      	uxth	r2, r2
   82bec:	f012 0308 	ands.w	r3, r2, #8
   82bf0:	6027      	str	r7, [r4, #0]
   82bf2:	6127      	str	r7, [r4, #16]
   82bf4:	6166      	str	r6, [r4, #20]
   82bf6:	d00e      	beq.n	82c16 <setvbuf+0x13e>
   82bf8:	07d1      	lsls	r1, r2, #31
   82bfa:	d51a      	bpl.n	82c32 <setvbuf+0x15a>
   82bfc:	2300      	movs	r3, #0
   82bfe:	6e65      	ldr	r5, [r4, #100]	; 0x64
   82c00:	4276      	negs	r6, r6
   82c02:	f015 0501 	ands.w	r5, r5, #1
   82c06:	61a6      	str	r6, [r4, #24]
   82c08:	60a3      	str	r3, [r4, #8]
   82c0a:	d009      	beq.n	82c20 <setvbuf+0x148>
   82c0c:	2500      	movs	r5, #0
   82c0e:	4628      	mov	r0, r5
   82c10:	b003      	add	sp, #12
   82c12:	e8bd 83f0 	ldmia.w	sp!, {r4, r5, r6, r7, r8, r9, pc}
   82c16:	60a3      	str	r3, [r4, #8]
   82c18:	6e65      	ldr	r5, [r4, #100]	; 0x64
   82c1a:	f015 0501 	ands.w	r5, r5, #1
   82c1e:	d1f5      	bne.n	82c0c <setvbuf+0x134>
   82c20:	0593      	lsls	r3, r2, #22
   82c22:	d4c0      	bmi.n	82ba6 <setvbuf+0xce>
   82c24:	6da0      	ldr	r0, [r4, #88]	; 0x58
   82c26:	f000 fadd 	bl	831e4 <__retarget_lock_release_recursive>
   82c2a:	4628      	mov	r0, r5
   82c2c:	b003      	add	sp, #12
   82c2e:	e8bd 83f0 	ldmia.w	sp!, {r4, r5, r6, r7, r8, r9, pc}
   82c32:	60a6      	str	r6, [r4, #8]
   82c34:	e7f0      	b.n	82c18 <setvbuf+0x140>
   82c36:	4628      	mov	r0, r5
   82c38:	f000 f91a 	bl	82e70 <__sinit>
   82c3c:	e7c7      	b.n	82bce <setvbuf+0xf6>
   82c3e:	f04f 35ff 	mov.w	r5, #4294967295
   82c42:	e7b0      	b.n	82ba6 <setvbuf+0xce>
   82c44:	f8dd 9000 	ldr.w	r9, [sp]
   82c48:	45b1      	cmp	r9, r6
   82c4a:	d004      	beq.n	82c56 <setvbuf+0x17e>
   82c4c:	4648      	mov	r0, r9
   82c4e:	f000 faf9 	bl	83244 <malloc>
   82c52:	4607      	mov	r7, r0
   82c54:	b920      	cbnz	r0, 82c60 <setvbuf+0x188>
   82c56:	f9b4 300c 	ldrsh.w	r3, [r4, #12]
   82c5a:	f04f 35ff 	mov.w	r5, #4294967295
   82c5e:	e792      	b.n	82b86 <setvbuf+0xae>
   82c60:	464e      	mov	r6, r9
   82c62:	e783      	b.n	82b6c <setvbuf+0x94>
   82c64:	20070134 	.word	0x20070134

00082c68 <register_fini>:
   82c68:	4b02      	ldr	r3, [pc, #8]	; (82c74 <register_fini+0xc>)
   82c6a:	b113      	cbz	r3, 82c72 <register_fini+0xa>
   82c6c:	4802      	ldr	r0, [pc, #8]	; (82c78 <register_fini+0x10>)
   82c6e:	f000 b805 	b.w	82c7c <atexit>
   82c72:	4770      	bx	lr
   82c74:	00000000 	.word	0x00000000
   82c78:	00082ee9 	.word	0x00082ee9

00082c7c <atexit>:
   82c7c:	2300      	movs	r3, #0
   82c7e:	4601      	mov	r1, r0
   82c80:	461a      	mov	r2, r3
   82c82:	4618      	mov	r0, r3
   82c84:	f000 be00 	b.w	83888 <__register_exitproc>

00082c88 <__sflush_r>:
   82c88:	f9b1 300c 	ldrsh.w	r3, [r1, #12]
   82c8c:	e92d 41f0 	stmdb	sp!, {r4, r5, r6, r7, r8, lr}
   82c90:	b29a      	uxth	r2, r3
   82c92:	460d      	mov	r5, r1
   82c94:	0711      	lsls	r1, r2, #28
   82c96:	4680      	mov	r8, r0
   82c98:	d43a      	bmi.n	82d10 <__sflush_r+0x88>
   82c9a:	686a      	ldr	r2, [r5, #4]
   82c9c:	f443 6300 	orr.w	r3, r3, #2048	; 0x800
   82ca0:	2a00      	cmp	r2, #0
   82ca2:	81ab      	strh	r3, [r5, #12]
   82ca4:	dd70      	ble.n	82d88 <__sflush_r+0x100>
   82ca6:	6aac      	ldr	r4, [r5, #40]	; 0x28
   82ca8:	2c00      	cmp	r4, #0
   82caa:	d04a      	beq.n	82d42 <__sflush_r+0xba>
   82cac:	2200      	movs	r2, #0
   82cae:	b29b      	uxth	r3, r3
   82cb0:	f8d8 6000 	ldr.w	r6, [r8]
   82cb4:	f8c8 2000 	str.w	r2, [r8]
   82cb8:	f413 5280 	ands.w	r2, r3, #4096	; 0x1000
   82cbc:	d068      	beq.n	82d90 <__sflush_r+0x108>
   82cbe:	6d2a      	ldr	r2, [r5, #80]	; 0x50
   82cc0:	075f      	lsls	r7, r3, #29
   82cc2:	d505      	bpl.n	82cd0 <__sflush_r+0x48>
   82cc4:	6869      	ldr	r1, [r5, #4]
   82cc6:	6b2b      	ldr	r3, [r5, #48]	; 0x30
   82cc8:	1a52      	subs	r2, r2, r1
   82cca:	b10b      	cbz	r3, 82cd0 <__sflush_r+0x48>
   82ccc:	6beb      	ldr	r3, [r5, #60]	; 0x3c
   82cce:	1ad2      	subs	r2, r2, r3
   82cd0:	2300      	movs	r3, #0
   82cd2:	69e9      	ldr	r1, [r5, #28]
   82cd4:	4640      	mov	r0, r8
   82cd6:	47a0      	blx	r4
   82cd8:	1c44      	adds	r4, r0, #1
   82cda:	d03d      	beq.n	82d58 <__sflush_r+0xd0>
   82cdc:	2100      	movs	r1, #0
   82cde:	f9b5 300c 	ldrsh.w	r3, [r5, #12]
   82ce2:	692a      	ldr	r2, [r5, #16]
   82ce4:	f423 6300 	bic.w	r3, r3, #2048	; 0x800
   82ce8:	81ab      	strh	r3, [r5, #12]
   82cea:	04db      	lsls	r3, r3, #19
   82cec:	6069      	str	r1, [r5, #4]
   82cee:	602a      	str	r2, [r5, #0]
   82cf0:	d448      	bmi.n	82d84 <__sflush_r+0xfc>
   82cf2:	6b29      	ldr	r1, [r5, #48]	; 0x30
   82cf4:	f8c8 6000 	str.w	r6, [r8]
   82cf8:	b319      	cbz	r1, 82d42 <__sflush_r+0xba>
   82cfa:	f105 0340 	add.w	r3, r5, #64	; 0x40
   82cfe:	4299      	cmp	r1, r3
   82d00:	d002      	beq.n	82d08 <__sflush_r+0x80>
   82d02:	4640      	mov	r0, r8
   82d04:	f000 f95a 	bl	82fbc <_free_r>
   82d08:	2000      	movs	r0, #0
   82d0a:	6328      	str	r0, [r5, #48]	; 0x30
   82d0c:	e8bd 81f0 	ldmia.w	sp!, {r4, r5, r6, r7, r8, pc}
   82d10:	692e      	ldr	r6, [r5, #16]
   82d12:	b1b6      	cbz	r6, 82d42 <__sflush_r+0xba>
   82d14:	0791      	lsls	r1, r2, #30
   82d16:	bf18      	it	ne
   82d18:	2300      	movne	r3, #0
   82d1a:	682c      	ldr	r4, [r5, #0]
   82d1c:	bf08      	it	eq
   82d1e:	696b      	ldreq	r3, [r5, #20]
   82d20:	602e      	str	r6, [r5, #0]
   82d22:	1ba4      	subs	r4, r4, r6
   82d24:	60ab      	str	r3, [r5, #8]
   82d26:	e00a      	b.n	82d3e <__sflush_r+0xb6>
   82d28:	4623      	mov	r3, r4
   82d2a:	4632      	mov	r2, r6
   82d2c:	6a6f      	ldr	r7, [r5, #36]	; 0x24
   82d2e:	69e9      	ldr	r1, [r5, #28]
   82d30:	4640      	mov	r0, r8
   82d32:	47b8      	blx	r7
   82d34:	2800      	cmp	r0, #0
   82d36:	eba4 0400 	sub.w	r4, r4, r0
   82d3a:	4406      	add	r6, r0
   82d3c:	dd04      	ble.n	82d48 <__sflush_r+0xc0>
   82d3e:	2c00      	cmp	r4, #0
   82d40:	dcf2      	bgt.n	82d28 <__sflush_r+0xa0>
   82d42:	2000      	movs	r0, #0
   82d44:	e8bd 81f0 	ldmia.w	sp!, {r4, r5, r6, r7, r8, pc}
   82d48:	89ab      	ldrh	r3, [r5, #12]
   82d4a:	f04f 30ff 	mov.w	r0, #4294967295
   82d4e:	f043 0340 	orr.w	r3, r3, #64	; 0x40
   82d52:	81ab      	strh	r3, [r5, #12]
   82d54:	e8bd 81f0 	ldmia.w	sp!, {r4, r5, r6, r7, r8, pc}
   82d58:	f8d8 4000 	ldr.w	r4, [r8]
   82d5c:	2c1d      	cmp	r4, #29
   82d5e:	d8f3      	bhi.n	82d48 <__sflush_r+0xc0>
   82d60:	4b16      	ldr	r3, [pc, #88]	; (82dbc <__sflush_r+0x134>)
   82d62:	40e3      	lsrs	r3, r4
   82d64:	43db      	mvns	r3, r3
   82d66:	f013 0301 	ands.w	r3, r3, #1
   82d6a:	d1ed      	bne.n	82d48 <__sflush_r+0xc0>
   82d6c:	f9b5 200c 	ldrsh.w	r2, [r5, #12]
   82d70:	6929      	ldr	r1, [r5, #16]
   82d72:	f422 6200 	bic.w	r2, r2, #2048	; 0x800
   82d76:	81aa      	strh	r2, [r5, #12]
   82d78:	04d2      	lsls	r2, r2, #19
   82d7a:	606b      	str	r3, [r5, #4]
   82d7c:	6029      	str	r1, [r5, #0]
   82d7e:	d5b8      	bpl.n	82cf2 <__sflush_r+0x6a>
   82d80:	2c00      	cmp	r4, #0
   82d82:	d1b6      	bne.n	82cf2 <__sflush_r+0x6a>
   82d84:	6528      	str	r0, [r5, #80]	; 0x50
   82d86:	e7b4      	b.n	82cf2 <__sflush_r+0x6a>
   82d88:	6bea      	ldr	r2, [r5, #60]	; 0x3c
   82d8a:	2a00      	cmp	r2, #0
   82d8c:	dc8b      	bgt.n	82ca6 <__sflush_r+0x1e>
   82d8e:	e7d8      	b.n	82d42 <__sflush_r+0xba>
   82d90:	2301      	movs	r3, #1
   82d92:	69e9      	ldr	r1, [r5, #28]
   82d94:	4640      	mov	r0, r8
   82d96:	47a0      	blx	r4
   82d98:	1c43      	adds	r3, r0, #1
   82d9a:	4602      	mov	r2, r0
   82d9c:	d002      	beq.n	82da4 <__sflush_r+0x11c>
   82d9e:	89ab      	ldrh	r3, [r5, #12]
   82da0:	6aac      	ldr	r4, [r5, #40]	; 0x28
   82da2:	e78d      	b.n	82cc0 <__sflush_r+0x38>
   82da4:	f8d8 3000 	ldr.w	r3, [r8]
   82da8:	2b00      	cmp	r3, #0
   82daa:	d0f8      	beq.n	82d9e <__sflush_r+0x116>
   82dac:	2b1d      	cmp	r3, #29
   82dae:	d001      	beq.n	82db4 <__sflush_r+0x12c>
   82db0:	2b16      	cmp	r3, #22
   82db2:	d1c9      	bne.n	82d48 <__sflush_r+0xc0>
   82db4:	f8c8 6000 	str.w	r6, [r8]
   82db8:	e7c3      	b.n	82d42 <__sflush_r+0xba>
   82dba:	bf00      	nop
   82dbc:	20400001 	.word	0x20400001

00082dc0 <_fflush_r>:
   82dc0:	b538      	push	{r3, r4, r5, lr}
   82dc2:	460d      	mov	r5, r1
   82dc4:	4604      	mov	r4, r0
   82dc6:	b108      	cbz	r0, 82dcc <_fflush_r+0xc>
   82dc8:	6b83      	ldr	r3, [r0, #56]	; 0x38
   82dca:	b1bb      	cbz	r3, 82dfc <_fflush_r+0x3c>
   82dcc:	f9b5 000c 	ldrsh.w	r0, [r5, #12]
   82dd0:	b188      	cbz	r0, 82df6 <_fflush_r+0x36>
   82dd2:	6e6b      	ldr	r3, [r5, #100]	; 0x64
   82dd4:	07db      	lsls	r3, r3, #31
   82dd6:	d401      	bmi.n	82ddc <_fflush_r+0x1c>
   82dd8:	0581      	lsls	r1, r0, #22
   82dda:	d517      	bpl.n	82e0c <_fflush_r+0x4c>
   82ddc:	4620      	mov	r0, r4
   82dde:	4629      	mov	r1, r5
   82de0:	f7ff ff52 	bl	82c88 <__sflush_r>
   82de4:	6e6b      	ldr	r3, [r5, #100]	; 0x64
   82de6:	4604      	mov	r4, r0
   82de8:	07da      	lsls	r2, r3, #31
   82dea:	d402      	bmi.n	82df2 <_fflush_r+0x32>
   82dec:	89ab      	ldrh	r3, [r5, #12]
   82dee:	059b      	lsls	r3, r3, #22
   82df0:	d507      	bpl.n	82e02 <_fflush_r+0x42>
   82df2:	4620      	mov	r0, r4
   82df4:	bd38      	pop	{r3, r4, r5, pc}
   82df6:	4604      	mov	r4, r0
   82df8:	4620      	mov	r0, r4
   82dfa:	bd38      	pop	{r3, r4, r5, pc}
   82dfc:	f000 f838 	bl	82e70 <__sinit>
   82e00:	e7e4      	b.n	82dcc <_fflush_r+0xc>
   82e02:	6da8      	ldr	r0, [r5, #88]	; 0x58
   82e04:	f000 f9ee 	bl	831e4 <__retarget_lock_release_recursive>
   82e08:	4620      	mov	r0, r4
   82e0a:	bd38      	pop	{r3, r4, r5, pc}
   82e0c:	6da8      	ldr	r0, [r5, #88]	; 0x58
   82e0e:	f000 f9e7 	bl	831e0 <__retarget_lock_acquire_recursive>
   82e12:	e7e3      	b.n	82ddc <_fflush_r+0x1c>

00082e14 <_cleanup_r>:
   82e14:	4901      	ldr	r1, [pc, #4]	; (82e1c <_cleanup_r+0x8>)
   82e16:	f000 b9b7 	b.w	83188 <_fwalk_reent>
   82e1a:	bf00      	nop
   82e1c:	00083971 	.word	0x00083971

00082e20 <std.isra.0>:
   82e20:	2300      	movs	r3, #0
   82e22:	b510      	push	{r4, lr}
   82e24:	4604      	mov	r4, r0
   82e26:	8181      	strh	r1, [r0, #12]
   82e28:	81c2      	strh	r2, [r0, #14]
   82e2a:	6003      	str	r3, [r0, #0]
   82e2c:	6043      	str	r3, [r0, #4]
   82e2e:	6083      	str	r3, [r0, #8]
   82e30:	6643      	str	r3, [r0, #100]	; 0x64
   82e32:	6103      	str	r3, [r0, #16]
   82e34:	6143      	str	r3, [r0, #20]
   82e36:	6183      	str	r3, [r0, #24]
   82e38:	4619      	mov	r1, r3
   82e3a:	2208      	movs	r2, #8
   82e3c:	305c      	adds	r0, #92	; 0x5c
   82e3e:	f7ff fdf5 	bl	82a2c <memset>
   82e42:	4807      	ldr	r0, [pc, #28]	; (82e60 <std.isra.0+0x40>)
   82e44:	4907      	ldr	r1, [pc, #28]	; (82e64 <std.isra.0+0x44>)
   82e46:	4a08      	ldr	r2, [pc, #32]	; (82e68 <std.isra.0+0x48>)
   82e48:	4b08      	ldr	r3, [pc, #32]	; (82e6c <std.isra.0+0x4c>)
   82e4a:	6220      	str	r0, [r4, #32]
   82e4c:	61e4      	str	r4, [r4, #28]
   82e4e:	6261      	str	r1, [r4, #36]	; 0x24
   82e50:	62a2      	str	r2, [r4, #40]	; 0x28
   82e52:	62e3      	str	r3, [r4, #44]	; 0x2c
   82e54:	f104 0058 	add.w	r0, r4, #88	; 0x58
   82e58:	e8bd 4010 	ldmia.w	sp!, {r4, lr}
   82e5c:	f000 b9bc 	b.w	831d8 <__retarget_lock_init_recursive>
   82e60:	000837d5 	.word	0x000837d5
   82e64:	000837f9 	.word	0x000837f9
   82e68:	00083835 	.word	0x00083835
   82e6c:	00083855 	.word	0x00083855

00082e70 <__sinit>:
   82e70:	b510      	push	{r4, lr}
   82e72:	4604      	mov	r4, r0
   82e74:	4814      	ldr	r0, [pc, #80]	; (82ec8 <__sinit+0x58>)
   82e76:	f000 f9b3 	bl	831e0 <__retarget_lock_acquire_recursive>
   82e7a:	6ba2      	ldr	r2, [r4, #56]	; 0x38
   82e7c:	b9fa      	cbnz	r2, 82ebe <__sinit+0x4e>
   82e7e:	2003      	movs	r0, #3
   82e80:	4912      	ldr	r1, [pc, #72]	; (82ecc <__sinit+0x5c>)
   82e82:	f504 733b 	add.w	r3, r4, #748	; 0x2ec
   82e86:	f8c4 32e8 	str.w	r3, [r4, #744]	; 0x2e8
   82e8a:	f8c4 22e0 	str.w	r2, [r4, #736]	; 0x2e0
   82e8e:	f8c4 02e4 	str.w	r0, [r4, #740]	; 0x2e4
   82e92:	63e1      	str	r1, [r4, #60]	; 0x3c
   82e94:	6860      	ldr	r0, [r4, #4]
   82e96:	2104      	movs	r1, #4
   82e98:	f7ff ffc2 	bl	82e20 <std.isra.0>
   82e9c:	68a0      	ldr	r0, [r4, #8]
   82e9e:	2201      	movs	r2, #1
   82ea0:	2109      	movs	r1, #9
   82ea2:	f7ff ffbd 	bl	82e20 <std.isra.0>
   82ea6:	68e0      	ldr	r0, [r4, #12]
   82ea8:	2202      	movs	r2, #2
   82eaa:	2112      	movs	r1, #18
   82eac:	f7ff ffb8 	bl	82e20 <std.isra.0>
   82eb0:	2301      	movs	r3, #1
   82eb2:	4805      	ldr	r0, [pc, #20]	; (82ec8 <__sinit+0x58>)
   82eb4:	63a3      	str	r3, [r4, #56]	; 0x38
   82eb6:	e8bd 4010 	ldmia.w	sp!, {r4, lr}
   82eba:	f000 b993 	b.w	831e4 <__retarget_lock_release_recursive>
   82ebe:	4802      	ldr	r0, [pc, #8]	; (82ec8 <__sinit+0x58>)
   82ec0:	e8bd 4010 	ldmia.w	sp!, {r4, lr}
   82ec4:	f000 b98e 	b.w	831e4 <__retarget_lock_release_recursive>
   82ec8:	2007c3e4 	.word	0x2007c3e4
   82ecc:	00082e15 	.word	0x00082e15

00082ed0 <__sfp_lock_acquire>:
   82ed0:	4801      	ldr	r0, [pc, #4]	; (82ed8 <__sfp_lock_acquire+0x8>)
   82ed2:	f000 b985 	b.w	831e0 <__retarget_lock_acquire_recursive>
   82ed6:	bf00      	nop
   82ed8:	2007c3f8 	.word	0x2007c3f8

00082edc <__sfp_lock_release>:
   82edc:	4801      	ldr	r0, [pc, #4]	; (82ee4 <__sfp_lock_release+0x8>)
   82ede:	f000 b981 	b.w	831e4 <__retarget_lock_release_recursive>
   82ee2:	bf00      	nop
   82ee4:	2007c3f8 	.word	0x2007c3f8

00082ee8 <__libc_fini_array>:
   82ee8:	b538      	push	{r3, r4, r5, lr}
   82eea:	4c0a      	ldr	r4, [pc, #40]	; (82f14 <__libc_fini_array+0x2c>)
   82eec:	4d0a      	ldr	r5, [pc, #40]	; (82f18 <__libc_fini_array+0x30>)
   82eee:	1b64      	subs	r4, r4, r5
   82ef0:	10a4      	asrs	r4, r4, #2
   82ef2:	d00a      	beq.n	82f0a <__libc_fini_array+0x22>
   82ef4:	f104 4380 	add.w	r3, r4, #1073741824	; 0x40000000
   82ef8:	3b01      	subs	r3, #1
   82efa:	eb05 0583 	add.w	r5, r5, r3, lsl #2
   82efe:	3c01      	subs	r4, #1
   82f00:	f855 3904 	ldr.w	r3, [r5], #-4
   82f04:	4798      	blx	r3
   82f06:	2c00      	cmp	r4, #0
   82f08:	d1f9      	bne.n	82efe <__libc_fini_array+0x16>
   82f0a:	e8bd 4038 	ldmia.w	sp!, {r3, r4, r5, lr}
   82f0e:	f000 be0f 	b.w	83b30 <_fini>
   82f12:	bf00      	nop
   82f14:	00083b40 	.word	0x00083b40
   82f18:	00083b3c 	.word	0x00083b3c

00082f1c <_malloc_trim_r>:
   82f1c:	b5f8      	push	{r3, r4, r5, r6, r7, lr}
   82f1e:	460c      	mov	r4, r1
   82f20:	4f23      	ldr	r7, [pc, #140]	; (82fb0 <_malloc_trim_r+0x94>)
   82f22:	4606      	mov	r6, r0
   82f24:	f000 fc38 	bl	83798 <__malloc_lock>
   82f28:	68bb      	ldr	r3, [r7, #8]
   82f2a:	f5c4 617e 	rsb	r1, r4, #4064	; 0xfe0
   82f2e:	685d      	ldr	r5, [r3, #4]
   82f30:	310f      	adds	r1, #15
   82f32:	f025 0503 	bic.w	r5, r5, #3
   82f36:	4429      	add	r1, r5
   82f38:	f421 617f 	bic.w	r1, r1, #4080	; 0xff0
   82f3c:	f021 010f 	bic.w	r1, r1, #15
   82f40:	f5a1 5480 	sub.w	r4, r1, #4096	; 0x1000
   82f44:	f5b4 5f80 	cmp.w	r4, #4096	; 0x1000
   82f48:	db07      	blt.n	82f5a <_malloc_trim_r+0x3e>
   82f4a:	2100      	movs	r1, #0
   82f4c:	4630      	mov	r0, r6
   82f4e:	f000 fc2f 	bl	837b0 <_sbrk_r>
   82f52:	68bb      	ldr	r3, [r7, #8]
   82f54:	442b      	add	r3, r5
   82f56:	4298      	cmp	r0, r3
   82f58:	d004      	beq.n	82f64 <_malloc_trim_r+0x48>
   82f5a:	4630      	mov	r0, r6
   82f5c:	f000 fc22 	bl	837a4 <__malloc_unlock>
   82f60:	2000      	movs	r0, #0
   82f62:	bdf8      	pop	{r3, r4, r5, r6, r7, pc}
   82f64:	4261      	negs	r1, r4
   82f66:	4630      	mov	r0, r6
   82f68:	f000 fc22 	bl	837b0 <_sbrk_r>
   82f6c:	3001      	adds	r0, #1
   82f6e:	d00d      	beq.n	82f8c <_malloc_trim_r+0x70>
   82f70:	4b10      	ldr	r3, [pc, #64]	; (82fb4 <_malloc_trim_r+0x98>)
   82f72:	68ba      	ldr	r2, [r7, #8]
   82f74:	6819      	ldr	r1, [r3, #0]
   82f76:	1b2d      	subs	r5, r5, r4
   82f78:	f045 0501 	orr.w	r5, r5, #1
   82f7c:	4630      	mov	r0, r6
   82f7e:	1b09      	subs	r1, r1, r4
   82f80:	6055      	str	r5, [r2, #4]
   82f82:	6019      	str	r1, [r3, #0]
   82f84:	f000 fc0e 	bl	837a4 <__malloc_unlock>
   82f88:	2001      	movs	r0, #1
   82f8a:	bdf8      	pop	{r3, r4, r5, r6, r7, pc}
   82f8c:	2100      	movs	r1, #0
   82f8e:	4630      	mov	r0, r6
   82f90:	f000 fc0e 	bl	837b0 <_sbrk_r>
   82f94:	68ba      	ldr	r2, [r7, #8]
   82f96:	1a83      	subs	r3, r0, r2
   82f98:	2b0f      	cmp	r3, #15
   82f9a:	ddde      	ble.n	82f5a <_malloc_trim_r+0x3e>
   82f9c:	4c06      	ldr	r4, [pc, #24]	; (82fb8 <_malloc_trim_r+0x9c>)
   82f9e:	4905      	ldr	r1, [pc, #20]	; (82fb4 <_malloc_trim_r+0x98>)
   82fa0:	6824      	ldr	r4, [r4, #0]
   82fa2:	f043 0301 	orr.w	r3, r3, #1
   82fa6:	1b00      	subs	r0, r0, r4
   82fa8:	6053      	str	r3, [r2, #4]
   82faa:	6008      	str	r0, [r1, #0]
   82fac:	e7d5      	b.n	82f5a <_malloc_trim_r+0x3e>
   82fae:	bf00      	nop
   82fb0:	20070564 	.word	0x20070564
   82fb4:	2007c354 	.word	0x2007c354
   82fb8:	2007096c 	.word	0x2007096c

00082fbc <_free_r>:
   82fbc:	2900      	cmp	r1, #0
   82fbe:	d044      	beq.n	8304a <_free_r+0x8e>
   82fc0:	e92d 41f0 	stmdb	sp!, {r4, r5, r6, r7, r8, lr}
   82fc4:	460d      	mov	r5, r1
   82fc6:	4680      	mov	r8, r0
   82fc8:	f000 fbe6 	bl	83798 <__malloc_lock>
   82fcc:	f855 7c04 	ldr.w	r7, [r5, #-4]
   82fd0:	4969      	ldr	r1, [pc, #420]	; (83178 <_free_r+0x1bc>)
   82fd2:	f1a5 0408 	sub.w	r4, r5, #8
   82fd6:	f027 0301 	bic.w	r3, r7, #1
   82fda:	18e2      	adds	r2, r4, r3
   82fdc:	688e      	ldr	r6, [r1, #8]
   82fde:	6850      	ldr	r0, [r2, #4]
   82fe0:	42b2      	cmp	r2, r6
   82fe2:	f020 0003 	bic.w	r0, r0, #3
   82fe6:	d05e      	beq.n	830a6 <_free_r+0xea>
   82fe8:	07fe      	lsls	r6, r7, #31
   82fea:	6050      	str	r0, [r2, #4]
   82fec:	d40b      	bmi.n	83006 <_free_r+0x4a>
   82fee:	f855 7c08 	ldr.w	r7, [r5, #-8]
   82ff2:	f101 0e08 	add.w	lr, r1, #8
   82ff6:	1be4      	subs	r4, r4, r7
   82ff8:	68a5      	ldr	r5, [r4, #8]
   82ffa:	443b      	add	r3, r7
   82ffc:	4575      	cmp	r5, lr
   82ffe:	d06d      	beq.n	830dc <_free_r+0x120>
   83000:	68e7      	ldr	r7, [r4, #12]
   83002:	60ef      	str	r7, [r5, #12]
   83004:	60bd      	str	r5, [r7, #8]
   83006:	1815      	adds	r5, r2, r0
   83008:	686d      	ldr	r5, [r5, #4]
   8300a:	07ed      	lsls	r5, r5, #31
   8300c:	d53e      	bpl.n	8308c <_free_r+0xd0>
   8300e:	f043 0201 	orr.w	r2, r3, #1
   83012:	6062      	str	r2, [r4, #4]
   83014:	50e3      	str	r3, [r4, r3]
   83016:	f5b3 7f00 	cmp.w	r3, #512	; 0x200
   8301a:	d217      	bcs.n	8304c <_free_r+0x90>
   8301c:	2201      	movs	r2, #1
   8301e:	08db      	lsrs	r3, r3, #3
   83020:	1098      	asrs	r0, r3, #2
   83022:	684d      	ldr	r5, [r1, #4]
   83024:	4413      	add	r3, r2
   83026:	f851 7033 	ldr.w	r7, [r1, r3, lsl #3]
   8302a:	4082      	lsls	r2, r0
   8302c:	eb01 00c3 	add.w	r0, r1, r3, lsl #3
   83030:	432a      	orrs	r2, r5
   83032:	3808      	subs	r0, #8
   83034:	60e0      	str	r0, [r4, #12]
   83036:	60a7      	str	r7, [r4, #8]
   83038:	604a      	str	r2, [r1, #4]
   8303a:	f841 4033 	str.w	r4, [r1, r3, lsl #3]
   8303e:	60fc      	str	r4, [r7, #12]
   83040:	4640      	mov	r0, r8
   83042:	e8bd 41f0 	ldmia.w	sp!, {r4, r5, r6, r7, r8, lr}
   83046:	f000 bbad 	b.w	837a4 <__malloc_unlock>
   8304a:	4770      	bx	lr
   8304c:	0a5a      	lsrs	r2, r3, #9
   8304e:	2a04      	cmp	r2, #4
   83050:	d852      	bhi.n	830f8 <_free_r+0x13c>
   83052:	099a      	lsrs	r2, r3, #6
   83054:	f102 0739 	add.w	r7, r2, #57	; 0x39
   83058:	00ff      	lsls	r7, r7, #3
   8305a:	f102 0538 	add.w	r5, r2, #56	; 0x38
   8305e:	19c8      	adds	r0, r1, r7
   83060:	59ca      	ldr	r2, [r1, r7]
   83062:	3808      	subs	r0, #8
   83064:	4290      	cmp	r0, r2
   83066:	d04f      	beq.n	83108 <_free_r+0x14c>
   83068:	6851      	ldr	r1, [r2, #4]
   8306a:	f021 0103 	bic.w	r1, r1, #3
   8306e:	428b      	cmp	r3, r1
   83070:	d232      	bcs.n	830d8 <_free_r+0x11c>
   83072:	6892      	ldr	r2, [r2, #8]
   83074:	4290      	cmp	r0, r2
   83076:	d1f7      	bne.n	83068 <_free_r+0xac>
   83078:	68c3      	ldr	r3, [r0, #12]
   8307a:	60a0      	str	r0, [r4, #8]
   8307c:	60e3      	str	r3, [r4, #12]
   8307e:	609c      	str	r4, [r3, #8]
   83080:	60c4      	str	r4, [r0, #12]
   83082:	4640      	mov	r0, r8
   83084:	e8bd 41f0 	ldmia.w	sp!, {r4, r5, r6, r7, r8, lr}
   83088:	f000 bb8c 	b.w	837a4 <__malloc_unlock>
   8308c:	6895      	ldr	r5, [r2, #8]
   8308e:	4f3b      	ldr	r7, [pc, #236]	; (8317c <_free_r+0x1c0>)
   83090:	4403      	add	r3, r0
   83092:	42bd      	cmp	r5, r7
   83094:	d040      	beq.n	83118 <_free_r+0x15c>
   83096:	68d0      	ldr	r0, [r2, #12]
   83098:	f043 0201 	orr.w	r2, r3, #1
   8309c:	60e8      	str	r0, [r5, #12]
   8309e:	6085      	str	r5, [r0, #8]
   830a0:	6062      	str	r2, [r4, #4]
   830a2:	50e3      	str	r3, [r4, r3]
   830a4:	e7b7      	b.n	83016 <_free_r+0x5a>
   830a6:	07ff      	lsls	r7, r7, #31
   830a8:	4403      	add	r3, r0
   830aa:	d407      	bmi.n	830bc <_free_r+0x100>
   830ac:	f855 5c08 	ldr.w	r5, [r5, #-8]
   830b0:	1b64      	subs	r4, r4, r5
   830b2:	68e2      	ldr	r2, [r4, #12]
   830b4:	68a0      	ldr	r0, [r4, #8]
   830b6:	442b      	add	r3, r5
   830b8:	60c2      	str	r2, [r0, #12]
   830ba:	6090      	str	r0, [r2, #8]
   830bc:	4a30      	ldr	r2, [pc, #192]	; (83180 <_free_r+0x1c4>)
   830be:	f043 0001 	orr.w	r0, r3, #1
   830c2:	6812      	ldr	r2, [r2, #0]
   830c4:	6060      	str	r0, [r4, #4]
   830c6:	4293      	cmp	r3, r2
   830c8:	608c      	str	r4, [r1, #8]
   830ca:	d3b9      	bcc.n	83040 <_free_r+0x84>
   830cc:	4b2d      	ldr	r3, [pc, #180]	; (83184 <_free_r+0x1c8>)
   830ce:	4640      	mov	r0, r8
   830d0:	6819      	ldr	r1, [r3, #0]
   830d2:	f7ff ff23 	bl	82f1c <_malloc_trim_r>
   830d6:	e7b3      	b.n	83040 <_free_r+0x84>
   830d8:	4610      	mov	r0, r2
   830da:	e7cd      	b.n	83078 <_free_r+0xbc>
   830dc:	1811      	adds	r1, r2, r0
   830de:	6849      	ldr	r1, [r1, #4]
   830e0:	07c9      	lsls	r1, r1, #31
   830e2:	d444      	bmi.n	8316e <_free_r+0x1b2>
   830e4:	6891      	ldr	r1, [r2, #8]
   830e6:	4403      	add	r3, r0
   830e8:	68d2      	ldr	r2, [r2, #12]
   830ea:	f043 0001 	orr.w	r0, r3, #1
   830ee:	60ca      	str	r2, [r1, #12]
   830f0:	6091      	str	r1, [r2, #8]
   830f2:	6060      	str	r0, [r4, #4]
   830f4:	50e3      	str	r3, [r4, r3]
   830f6:	e7a3      	b.n	83040 <_free_r+0x84>
   830f8:	2a14      	cmp	r2, #20
   830fa:	d816      	bhi.n	8312a <_free_r+0x16e>
   830fc:	f102 075c 	add.w	r7, r2, #92	; 0x5c
   83100:	00ff      	lsls	r7, r7, #3
   83102:	f102 055b 	add.w	r5, r2, #91	; 0x5b
   83106:	e7aa      	b.n	8305e <_free_r+0xa2>
   83108:	2301      	movs	r3, #1
   8310a:	10aa      	asrs	r2, r5, #2
   8310c:	684d      	ldr	r5, [r1, #4]
   8310e:	4093      	lsls	r3, r2
   83110:	432b      	orrs	r3, r5
   83112:	604b      	str	r3, [r1, #4]
   83114:	4603      	mov	r3, r0
   83116:	e7b0      	b.n	8307a <_free_r+0xbe>
   83118:	f043 0201 	orr.w	r2, r3, #1
   8311c:	614c      	str	r4, [r1, #20]
   8311e:	610c      	str	r4, [r1, #16]
   83120:	60e5      	str	r5, [r4, #12]
   83122:	60a5      	str	r5, [r4, #8]
   83124:	6062      	str	r2, [r4, #4]
   83126:	50e3      	str	r3, [r4, r3]
   83128:	e78a      	b.n	83040 <_free_r+0x84>
   8312a:	2a54      	cmp	r2, #84	; 0x54
   8312c:	d806      	bhi.n	8313c <_free_r+0x180>
   8312e:	0b1a      	lsrs	r2, r3, #12
   83130:	f102 076f 	add.w	r7, r2, #111	; 0x6f
   83134:	00ff      	lsls	r7, r7, #3
   83136:	f102 056e 	add.w	r5, r2, #110	; 0x6e
   8313a:	e790      	b.n	8305e <_free_r+0xa2>
   8313c:	f5b2 7faa 	cmp.w	r2, #340	; 0x154
   83140:	d806      	bhi.n	83150 <_free_r+0x194>
   83142:	0bda      	lsrs	r2, r3, #15
   83144:	f102 0778 	add.w	r7, r2, #120	; 0x78
   83148:	00ff      	lsls	r7, r7, #3
   8314a:	f102 0577 	add.w	r5, r2, #119	; 0x77
   8314e:	e786      	b.n	8305e <_free_r+0xa2>
   83150:	f240 5054 	movw	r0, #1364	; 0x554
   83154:	4282      	cmp	r2, r0
   83156:	d806      	bhi.n	83166 <_free_r+0x1aa>
   83158:	0c9a      	lsrs	r2, r3, #18
   8315a:	f102 077d 	add.w	r7, r2, #125	; 0x7d
   8315e:	00ff      	lsls	r7, r7, #3
   83160:	f102 057c 	add.w	r5, r2, #124	; 0x7c
   83164:	e77b      	b.n	8305e <_free_r+0xa2>
   83166:	f44f 777e 	mov.w	r7, #1016	; 0x3f8
   8316a:	257e      	movs	r5, #126	; 0x7e
   8316c:	e777      	b.n	8305e <_free_r+0xa2>
   8316e:	f043 0101 	orr.w	r1, r3, #1
   83172:	6061      	str	r1, [r4, #4]
   83174:	6013      	str	r3, [r2, #0]
   83176:	e763      	b.n	83040 <_free_r+0x84>
   83178:	20070564 	.word	0x20070564
   8317c:	2007056c 	.word	0x2007056c
   83180:	20070970 	.word	0x20070970
   83184:	2007c384 	.word	0x2007c384

00083188 <_fwalk_reent>:
   83188:	e92d 43f8 	stmdb	sp!, {r3, r4, r5, r6, r7, r8, r9, lr}
   8318c:	f510 7638 	adds.w	r6, r0, #736	; 0x2e0
   83190:	d01e      	beq.n	831d0 <_fwalk_reent+0x48>
   83192:	4688      	mov	r8, r1
   83194:	4607      	mov	r7, r0
   83196:	f04f 0900 	mov.w	r9, #0
   8319a:	6875      	ldr	r5, [r6, #4]
   8319c:	68b4      	ldr	r4, [r6, #8]
   8319e:	3d01      	subs	r5, #1
   831a0:	d410      	bmi.n	831c4 <_fwalk_reent+0x3c>
   831a2:	89a3      	ldrh	r3, [r4, #12]
   831a4:	3d01      	subs	r5, #1
   831a6:	2b01      	cmp	r3, #1
   831a8:	d908      	bls.n	831bc <_fwalk_reent+0x34>
   831aa:	f9b4 300e 	ldrsh.w	r3, [r4, #14]
   831ae:	3301      	adds	r3, #1
   831b0:	d004      	beq.n	831bc <_fwalk_reent+0x34>
   831b2:	4621      	mov	r1, r4
   831b4:	4638      	mov	r0, r7
   831b6:	47c0      	blx	r8
   831b8:	ea49 0900 	orr.w	r9, r9, r0
   831bc:	1c6b      	adds	r3, r5, #1
   831be:	f104 0468 	add.w	r4, r4, #104	; 0x68
   831c2:	d1ee      	bne.n	831a2 <_fwalk_reent+0x1a>
   831c4:	6836      	ldr	r6, [r6, #0]
   831c6:	2e00      	cmp	r6, #0
   831c8:	d1e7      	bne.n	8319a <_fwalk_reent+0x12>
   831ca:	4648      	mov	r0, r9
   831cc:	e8bd 83f8 	ldmia.w	sp!, {r3, r4, r5, r6, r7, r8, r9, pc}
   831d0:	46b1      	mov	r9, r6
   831d2:	4648      	mov	r0, r9
   831d4:	e8bd 83f8 	ldmia.w	sp!, {r3, r4, r5, r6, r7, r8, r9, pc}

000831d8 <__retarget_lock_init_recursive>:
   831d8:	4770      	bx	lr
   831da:	bf00      	nop

000831dc <__retarget_lock_close_recursive>:
   831dc:	4770      	bx	lr
   831de:	bf00      	nop

000831e0 <__retarget_lock_acquire_recursive>:
   831e0:	4770      	bx	lr
   831e2:	bf00      	nop

000831e4 <__retarget_lock_release_recursive>:
   831e4:	4770      	bx	lr
   831e6:	bf00      	nop

000831e8 <__swhatbuf_r>:
   831e8:	b570      	push	{r4, r5, r6, lr}
   831ea:	460c      	mov	r4, r1
   831ec:	f9b1 100e 	ldrsh.w	r1, [r1, #14]
   831f0:	b090      	sub	sp, #64	; 0x40
   831f2:	2900      	cmp	r1, #0
   831f4:	4615      	mov	r5, r2
   831f6:	461e      	mov	r6, r3
   831f8:	db14      	blt.n	83224 <__swhatbuf_r+0x3c>
   831fa:	aa01      	add	r2, sp, #4
   831fc:	f000 fc1a 	bl	83a34 <_fstat_r>
   83200:	2800      	cmp	r0, #0
   83202:	db0f      	blt.n	83224 <__swhatbuf_r+0x3c>
   83204:	9a02      	ldr	r2, [sp, #8]
   83206:	f44f 6380 	mov.w	r3, #1024	; 0x400
   8320a:	f402 4270 	and.w	r2, r2, #61440	; 0xf000
   8320e:	f5a2 5200 	sub.w	r2, r2, #8192	; 0x2000
   83212:	fab2 f282 	clz	r2, r2
   83216:	f44f 6000 	mov.w	r0, #2048	; 0x800
   8321a:	0952      	lsrs	r2, r2, #5
   8321c:	6032      	str	r2, [r6, #0]
   8321e:	602b      	str	r3, [r5, #0]
   83220:	b010      	add	sp, #64	; 0x40
   83222:	bd70      	pop	{r4, r5, r6, pc}
   83224:	2300      	movs	r3, #0
   83226:	89a2      	ldrh	r2, [r4, #12]
   83228:	6033      	str	r3, [r6, #0]
   8322a:	f012 0080 	ands.w	r0, r2, #128	; 0x80
   8322e:	d004      	beq.n	8323a <__swhatbuf_r+0x52>
   83230:	2240      	movs	r2, #64	; 0x40
   83232:	4618      	mov	r0, r3
   83234:	602a      	str	r2, [r5, #0]
   83236:	b010      	add	sp, #64	; 0x40
   83238:	bd70      	pop	{r4, r5, r6, pc}
   8323a:	f44f 6380 	mov.w	r3, #1024	; 0x400
   8323e:	602b      	str	r3, [r5, #0]
   83240:	b010      	add	sp, #64	; 0x40
   83242:	bd70      	pop	{r4, r5, r6, pc}

00083244 <malloc>:
   83244:	4b02      	ldr	r3, [pc, #8]	; (83250 <malloc+0xc>)
   83246:	4601      	mov	r1, r0
   83248:	6818      	ldr	r0, [r3, #0]
   8324a:	f000 b803 	b.w	83254 <_malloc_r>
   8324e:	bf00      	nop
   83250:	20070134 	.word	0x20070134

00083254 <_malloc_r>:
   83254:	e92d 4ff0 	stmdb	sp!, {r4, r5, r6, r7, r8, r9, sl, fp, lr}
   83258:	f101 060b 	add.w	r6, r1, #11
   8325c:	2e16      	cmp	r6, #22
   8325e:	b083      	sub	sp, #12
   83260:	4605      	mov	r5, r0
   83262:	f240 809e 	bls.w	833a2 <_malloc_r+0x14e>
   83266:	f036 0607 	bics.w	r6, r6, #7
   8326a:	f100 80bd 	bmi.w	833e8 <_malloc_r+0x194>
   8326e:	42b1      	cmp	r1, r6
   83270:	f200 80ba 	bhi.w	833e8 <_malloc_r+0x194>
   83274:	f000 fa90 	bl	83798 <__malloc_lock>
   83278:	f5b6 7ffc 	cmp.w	r6, #504	; 0x1f8
   8327c:	f0c0 8285 	bcc.w	8378a <_malloc_r+0x536>
   83280:	0a73      	lsrs	r3, r6, #9
   83282:	f000 80b8 	beq.w	833f6 <_malloc_r+0x1a2>
   83286:	2b04      	cmp	r3, #4
   83288:	f200 816c 	bhi.w	83564 <_malloc_r+0x310>
   8328c:	09b3      	lsrs	r3, r6, #6
   8328e:	f103 0039 	add.w	r0, r3, #57	; 0x39
   83292:	f103 0e38 	add.w	lr, r3, #56	; 0x38
   83296:	00c1      	lsls	r1, r0, #3
   83298:	4fb8      	ldr	r7, [pc, #736]	; (8357c <_malloc_r+0x328>)
   8329a:	4439      	add	r1, r7
   8329c:	684c      	ldr	r4, [r1, #4]
   8329e:	3908      	subs	r1, #8
   832a0:	42a1      	cmp	r1, r4
   832a2:	d106      	bne.n	832b2 <_malloc_r+0x5e>
   832a4:	e00c      	b.n	832c0 <_malloc_r+0x6c>
   832a6:	2a00      	cmp	r2, #0
   832a8:	f280 80ab 	bge.w	83402 <_malloc_r+0x1ae>
   832ac:	68e4      	ldr	r4, [r4, #12]
   832ae:	42a1      	cmp	r1, r4
   832b0:	d006      	beq.n	832c0 <_malloc_r+0x6c>
   832b2:	6863      	ldr	r3, [r4, #4]
   832b4:	f023 0303 	bic.w	r3, r3, #3
   832b8:	1b9a      	subs	r2, r3, r6
   832ba:	2a0f      	cmp	r2, #15
   832bc:	ddf3      	ble.n	832a6 <_malloc_r+0x52>
   832be:	4670      	mov	r0, lr
   832c0:	693c      	ldr	r4, [r7, #16]
   832c2:	f8df e2cc 	ldr.w	lr, [pc, #716]	; 83590 <_malloc_r+0x33c>
   832c6:	4574      	cmp	r4, lr
   832c8:	f000 819e 	beq.w	83608 <_malloc_r+0x3b4>
   832cc:	6863      	ldr	r3, [r4, #4]
   832ce:	f023 0303 	bic.w	r3, r3, #3
   832d2:	1b9a      	subs	r2, r3, r6
   832d4:	2a0f      	cmp	r2, #15
   832d6:	f300 8183 	bgt.w	835e0 <_malloc_r+0x38c>
   832da:	2a00      	cmp	r2, #0
   832dc:	f8c7 e014 	str.w	lr, [r7, #20]
   832e0:	f8c7 e010 	str.w	lr, [r7, #16]
   832e4:	f280 8091 	bge.w	8340a <_malloc_r+0x1b6>
   832e8:	f5b3 7f00 	cmp.w	r3, #512	; 0x200
   832ec:	f080 8154 	bcs.w	83598 <_malloc_r+0x344>
   832f0:	2201      	movs	r2, #1
   832f2:	08db      	lsrs	r3, r3, #3
   832f4:	6879      	ldr	r1, [r7, #4]
   832f6:	ea4f 0ca3 	mov.w	ip, r3, asr #2
   832fa:	4413      	add	r3, r2
   832fc:	f857 8033 	ldr.w	r8, [r7, r3, lsl #3]
   83300:	fa02 f20c 	lsl.w	r2, r2, ip
   83304:	eb07 0cc3 	add.w	ip, r7, r3, lsl #3
   83308:	430a      	orrs	r2, r1
   8330a:	f1ac 0108 	sub.w	r1, ip, #8
   8330e:	60e1      	str	r1, [r4, #12]
   83310:	f8c4 8008 	str.w	r8, [r4, #8]
   83314:	607a      	str	r2, [r7, #4]
   83316:	f847 4033 	str.w	r4, [r7, r3, lsl #3]
   8331a:	f8c8 400c 	str.w	r4, [r8, #12]
   8331e:	2401      	movs	r4, #1
   83320:	1083      	asrs	r3, r0, #2
   83322:	409c      	lsls	r4, r3
   83324:	4294      	cmp	r4, r2
   83326:	d87d      	bhi.n	83424 <_malloc_r+0x1d0>
   83328:	4214      	tst	r4, r2
   8332a:	d106      	bne.n	8333a <_malloc_r+0xe6>
   8332c:	f020 0003 	bic.w	r0, r0, #3
   83330:	0064      	lsls	r4, r4, #1
   83332:	4214      	tst	r4, r2
   83334:	f100 0004 	add.w	r0, r0, #4
   83338:	d0fa      	beq.n	83330 <_malloc_r+0xdc>
   8333a:	eb07 09c0 	add.w	r9, r7, r0, lsl #3
   8333e:	46cc      	mov	ip, r9
   83340:	4680      	mov	r8, r0
   83342:	f8dc 300c 	ldr.w	r3, [ip, #12]
   83346:	459c      	cmp	ip, r3
   83348:	d107      	bne.n	8335a <_malloc_r+0x106>
   8334a:	e15f      	b.n	8360c <_malloc_r+0x3b8>
   8334c:	2a00      	cmp	r2, #0
   8334e:	f280 816d 	bge.w	8362c <_malloc_r+0x3d8>
   83352:	68db      	ldr	r3, [r3, #12]
   83354:	459c      	cmp	ip, r3
   83356:	f000 8159 	beq.w	8360c <_malloc_r+0x3b8>
   8335a:	6859      	ldr	r1, [r3, #4]
   8335c:	f021 0103 	bic.w	r1, r1, #3
   83360:	1b8a      	subs	r2, r1, r6
   83362:	2a0f      	cmp	r2, #15
   83364:	ddf2      	ble.n	8334c <_malloc_r+0xf8>
   83366:	68dc      	ldr	r4, [r3, #12]
   83368:	f8d3 c008 	ldr.w	ip, [r3, #8]
   8336c:	f046 0801 	orr.w	r8, r6, #1
   83370:	4628      	mov	r0, r5
   83372:	441e      	add	r6, r3
   83374:	f042 0501 	orr.w	r5, r2, #1
   83378:	f8c3 8004 	str.w	r8, [r3, #4]
   8337c:	f8cc 400c 	str.w	r4, [ip, #12]
   83380:	f8c4 c008 	str.w	ip, [r4, #8]
   83384:	617e      	str	r6, [r7, #20]
   83386:	613e      	str	r6, [r7, #16]
   83388:	f8c6 e00c 	str.w	lr, [r6, #12]
   8338c:	f8c6 e008 	str.w	lr, [r6, #8]
   83390:	6075      	str	r5, [r6, #4]
   83392:	505a      	str	r2, [r3, r1]
   83394:	9300      	str	r3, [sp, #0]
   83396:	f000 fa05 	bl	837a4 <__malloc_unlock>
   8339a:	9b00      	ldr	r3, [sp, #0]
   8339c:	f103 0408 	add.w	r4, r3, #8
   833a0:	e01e      	b.n	833e0 <_malloc_r+0x18c>
   833a2:	2910      	cmp	r1, #16
   833a4:	d820      	bhi.n	833e8 <_malloc_r+0x194>
   833a6:	f000 f9f7 	bl	83798 <__malloc_lock>
   833aa:	2610      	movs	r6, #16
   833ac:	2318      	movs	r3, #24
   833ae:	2002      	movs	r0, #2
   833b0:	4f72      	ldr	r7, [pc, #456]	; (8357c <_malloc_r+0x328>)
   833b2:	443b      	add	r3, r7
   833b4:	685c      	ldr	r4, [r3, #4]
   833b6:	f1a3 0208 	sub.w	r2, r3, #8
   833ba:	4294      	cmp	r4, r2
   833bc:	f000 812f 	beq.w	8361e <_malloc_r+0x3ca>
   833c0:	6863      	ldr	r3, [r4, #4]
   833c2:	68e1      	ldr	r1, [r4, #12]
   833c4:	f023 0303 	bic.w	r3, r3, #3
   833c8:	4423      	add	r3, r4
   833ca:	685a      	ldr	r2, [r3, #4]
   833cc:	68a6      	ldr	r6, [r4, #8]
   833ce:	f042 0201 	orr.w	r2, r2, #1
   833d2:	60f1      	str	r1, [r6, #12]
   833d4:	4628      	mov	r0, r5
   833d6:	608e      	str	r6, [r1, #8]
   833d8:	605a      	str	r2, [r3, #4]
   833da:	f000 f9e3 	bl	837a4 <__malloc_unlock>
   833de:	3408      	adds	r4, #8
   833e0:	4620      	mov	r0, r4
   833e2:	b003      	add	sp, #12
   833e4:	e8bd 8ff0 	ldmia.w	sp!, {r4, r5, r6, r7, r8, r9, sl, fp, pc}
   833e8:	2400      	movs	r4, #0
   833ea:	230c      	movs	r3, #12
   833ec:	4620      	mov	r0, r4
   833ee:	602b      	str	r3, [r5, #0]
   833f0:	b003      	add	sp, #12
   833f2:	e8bd 8ff0 	ldmia.w	sp!, {r4, r5, r6, r7, r8, r9, sl, fp, pc}
   833f6:	2040      	movs	r0, #64	; 0x40
   833f8:	f44f 7100 	mov.w	r1, #512	; 0x200
   833fc:	f04f 0e3f 	mov.w	lr, #63	; 0x3f
   83400:	e74a      	b.n	83298 <_malloc_r+0x44>
   83402:	4423      	add	r3, r4
   83404:	685a      	ldr	r2, [r3, #4]
   83406:	68e1      	ldr	r1, [r4, #12]
   83408:	e7e0      	b.n	833cc <_malloc_r+0x178>
   8340a:	4423      	add	r3, r4
   8340c:	685a      	ldr	r2, [r3, #4]
   8340e:	4628      	mov	r0, r5
   83410:	f042 0201 	orr.w	r2, r2, #1
   83414:	605a      	str	r2, [r3, #4]
   83416:	3408      	adds	r4, #8
   83418:	f000 f9c4 	bl	837a4 <__malloc_unlock>
   8341c:	4620      	mov	r0, r4
   8341e:	b003      	add	sp, #12
   83420:	e8bd 8ff0 	ldmia.w	sp!, {r4, r5, r6, r7, r8, r9, sl, fp, pc}
   83424:	68bc      	ldr	r4, [r7, #8]
   83426:	6863      	ldr	r3, [r4, #4]
   83428:	f023 0803 	bic.w	r8, r3, #3
   8342c:	45b0      	cmp	r8, r6
   8342e:	d304      	bcc.n	8343a <_malloc_r+0x1e6>
   83430:	eba8 0306 	sub.w	r3, r8, r6
   83434:	2b0f      	cmp	r3, #15
   83436:	f300 8085 	bgt.w	83544 <_malloc_r+0x2f0>
   8343a:	f8df 9158 	ldr.w	r9, [pc, #344]	; 83594 <_malloc_r+0x340>
   8343e:	4b50      	ldr	r3, [pc, #320]	; (83580 <_malloc_r+0x32c>)
   83440:	f8d9 2000 	ldr.w	r2, [r9]
   83444:	681b      	ldr	r3, [r3, #0]
   83446:	3201      	adds	r2, #1
   83448:	4433      	add	r3, r6
   8344a:	eb04 0a08 	add.w	sl, r4, r8
   8344e:	f000 8154 	beq.w	836fa <_malloc_r+0x4a6>
   83452:	f503 5380 	add.w	r3, r3, #4096	; 0x1000
   83456:	330f      	adds	r3, #15
   83458:	f423 6b7f 	bic.w	fp, r3, #4080	; 0xff0
   8345c:	f02b 0b0f 	bic.w	fp, fp, #15
   83460:	4659      	mov	r1, fp
   83462:	4628      	mov	r0, r5
   83464:	f000 f9a4 	bl	837b0 <_sbrk_r>
   83468:	1c41      	adds	r1, r0, #1
   8346a:	4602      	mov	r2, r0
   8346c:	f000 80fb 	beq.w	83666 <_malloc_r+0x412>
   83470:	4582      	cmp	sl, r0
   83472:	f200 80f6 	bhi.w	83662 <_malloc_r+0x40e>
   83476:	4b43      	ldr	r3, [pc, #268]	; (83584 <_malloc_r+0x330>)
   83478:	6819      	ldr	r1, [r3, #0]
   8347a:	4459      	add	r1, fp
   8347c:	6019      	str	r1, [r3, #0]
   8347e:	f000 814c 	beq.w	8371a <_malloc_r+0x4c6>
   83482:	f8d9 0000 	ldr.w	r0, [r9]
   83486:	3001      	adds	r0, #1
   83488:	bf1b      	ittet	ne
   8348a:	eba2 0a0a 	subne.w	sl, r2, sl
   8348e:	4451      	addne	r1, sl
   83490:	f8c9 2000 	streq.w	r2, [r9]
   83494:	6019      	strne	r1, [r3, #0]
   83496:	f012 0107 	ands.w	r1, r2, #7
   8349a:	f000 8114 	beq.w	836c6 <_malloc_r+0x472>
   8349e:	f1c1 0008 	rsb	r0, r1, #8
   834a2:	f5c1 5180 	rsb	r1, r1, #4096	; 0x1000
   834a6:	4402      	add	r2, r0
   834a8:	3108      	adds	r1, #8
   834aa:	eb02 090b 	add.w	r9, r2, fp
   834ae:	f3c9 090b 	ubfx	r9, r9, #0, #12
   834b2:	eba1 0909 	sub.w	r9, r1, r9
   834b6:	4649      	mov	r1, r9
   834b8:	4628      	mov	r0, r5
   834ba:	9301      	str	r3, [sp, #4]
   834bc:	9200      	str	r2, [sp, #0]
   834be:	f000 f977 	bl	837b0 <_sbrk_r>
   834c2:	1c43      	adds	r3, r0, #1
   834c4:	e89d 000c 	ldmia.w	sp, {r2, r3}
   834c8:	f000 8142 	beq.w	83750 <_malloc_r+0x4fc>
   834cc:	1a80      	subs	r0, r0, r2
   834ce:	4448      	add	r0, r9
   834d0:	f040 0001 	orr.w	r0, r0, #1
   834d4:	6819      	ldr	r1, [r3, #0]
   834d6:	42bc      	cmp	r4, r7
   834d8:	4449      	add	r1, r9
   834da:	60ba      	str	r2, [r7, #8]
   834dc:	6019      	str	r1, [r3, #0]
   834de:	6050      	str	r0, [r2, #4]
   834e0:	d017      	beq.n	83512 <_malloc_r+0x2be>
   834e2:	f1b8 0f0f 	cmp.w	r8, #15
   834e6:	f240 80fa 	bls.w	836de <_malloc_r+0x48a>
   834ea:	f04f 0c05 	mov.w	ip, #5
   834ee:	6862      	ldr	r2, [r4, #4]
   834f0:	f1a8 000c 	sub.w	r0, r8, #12
   834f4:	f020 0007 	bic.w	r0, r0, #7
   834f8:	f002 0201 	and.w	r2, r2, #1
   834fc:	eb04 0e00 	add.w	lr, r4, r0
   83500:	4302      	orrs	r2, r0
   83502:	280f      	cmp	r0, #15
   83504:	6062      	str	r2, [r4, #4]
   83506:	f8ce c004 	str.w	ip, [lr, #4]
   8350a:	f8ce c008 	str.w	ip, [lr, #8]
   8350e:	f200 8116 	bhi.w	8373e <_malloc_r+0x4ea>
   83512:	4b1d      	ldr	r3, [pc, #116]	; (83588 <_malloc_r+0x334>)
   83514:	68bc      	ldr	r4, [r7, #8]
   83516:	681a      	ldr	r2, [r3, #0]
   83518:	4291      	cmp	r1, r2
   8351a:	bf88      	it	hi
   8351c:	6019      	strhi	r1, [r3, #0]
   8351e:	4b1b      	ldr	r3, [pc, #108]	; (8358c <_malloc_r+0x338>)
   83520:	681a      	ldr	r2, [r3, #0]
   83522:	4291      	cmp	r1, r2
   83524:	6862      	ldr	r2, [r4, #4]
   83526:	bf88      	it	hi
   83528:	6019      	strhi	r1, [r3, #0]
   8352a:	f022 0203 	bic.w	r2, r2, #3
   8352e:	4296      	cmp	r6, r2
   83530:	eba2 0306 	sub.w	r3, r2, r6
   83534:	d801      	bhi.n	8353a <_malloc_r+0x2e6>
   83536:	2b0f      	cmp	r3, #15
   83538:	dc04      	bgt.n	83544 <_malloc_r+0x2f0>
   8353a:	4628      	mov	r0, r5
   8353c:	f000 f932 	bl	837a4 <__malloc_unlock>
   83540:	2400      	movs	r4, #0
   83542:	e74d      	b.n	833e0 <_malloc_r+0x18c>
   83544:	f046 0201 	orr.w	r2, r6, #1
   83548:	f043 0301 	orr.w	r3, r3, #1
   8354c:	4426      	add	r6, r4
   8354e:	6062      	str	r2, [r4, #4]
   83550:	4628      	mov	r0, r5
   83552:	60be      	str	r6, [r7, #8]
   83554:	3408      	adds	r4, #8
   83556:	6073      	str	r3, [r6, #4]
   83558:	f000 f924 	bl	837a4 <__malloc_unlock>
   8355c:	4620      	mov	r0, r4
   8355e:	b003      	add	sp, #12
   83560:	e8bd 8ff0 	ldmia.w	sp!, {r4, r5, r6, r7, r8, r9, sl, fp, pc}
   83564:	2b14      	cmp	r3, #20
   83566:	d970      	bls.n	8364a <_malloc_r+0x3f6>
   83568:	2b54      	cmp	r3, #84	; 0x54
   8356a:	f200 80a2 	bhi.w	836b2 <_malloc_r+0x45e>
   8356e:	0b33      	lsrs	r3, r6, #12
   83570:	f103 006f 	add.w	r0, r3, #111	; 0x6f
   83574:	f103 0e6e 	add.w	lr, r3, #110	; 0x6e
   83578:	00c1      	lsls	r1, r0, #3
   8357a:	e68d      	b.n	83298 <_malloc_r+0x44>
   8357c:	20070564 	.word	0x20070564
   83580:	2007c384 	.word	0x2007c384
   83584:	2007c354 	.word	0x2007c354
   83588:	2007c37c 	.word	0x2007c37c
   8358c:	2007c380 	.word	0x2007c380
   83590:	2007056c 	.word	0x2007056c
   83594:	2007096c 	.word	0x2007096c
   83598:	0a5a      	lsrs	r2, r3, #9
   8359a:	2a04      	cmp	r2, #4
   8359c:	d95b      	bls.n	83656 <_malloc_r+0x402>
   8359e:	2a14      	cmp	r2, #20
   835a0:	f200 80ae 	bhi.w	83700 <_malloc_r+0x4ac>
   835a4:	f102 015c 	add.w	r1, r2, #92	; 0x5c
   835a8:	00c9      	lsls	r1, r1, #3
   835aa:	325b      	adds	r2, #91	; 0x5b
   835ac:	eb07 0c01 	add.w	ip, r7, r1
   835b0:	5879      	ldr	r1, [r7, r1]
   835b2:	f1ac 0c08 	sub.w	ip, ip, #8
   835b6:	458c      	cmp	ip, r1
   835b8:	f000 8088 	beq.w	836cc <_malloc_r+0x478>
   835bc:	684a      	ldr	r2, [r1, #4]
   835be:	f022 0203 	bic.w	r2, r2, #3
   835c2:	4293      	cmp	r3, r2
   835c4:	d273      	bcs.n	836ae <_malloc_r+0x45a>
   835c6:	6889      	ldr	r1, [r1, #8]
   835c8:	458c      	cmp	ip, r1
   835ca:	d1f7      	bne.n	835bc <_malloc_r+0x368>
   835cc:	f8dc 300c 	ldr.w	r3, [ip, #12]
   835d0:	687a      	ldr	r2, [r7, #4]
   835d2:	60e3      	str	r3, [r4, #12]
   835d4:	f8c4 c008 	str.w	ip, [r4, #8]
   835d8:	609c      	str	r4, [r3, #8]
   835da:	f8cc 400c 	str.w	r4, [ip, #12]
   835de:	e69e      	b.n	8331e <_malloc_r+0xca>
   835e0:	f046 0c01 	orr.w	ip, r6, #1
   835e4:	f042 0101 	orr.w	r1, r2, #1
   835e8:	4426      	add	r6, r4
   835ea:	f8c4 c004 	str.w	ip, [r4, #4]
   835ee:	4628      	mov	r0, r5
   835f0:	617e      	str	r6, [r7, #20]
   835f2:	613e      	str	r6, [r7, #16]
   835f4:	f8c6 e00c 	str.w	lr, [r6, #12]
   835f8:	f8c6 e008 	str.w	lr, [r6, #8]
   835fc:	6071      	str	r1, [r6, #4]
   835fe:	50e2      	str	r2, [r4, r3]
   83600:	f000 f8d0 	bl	837a4 <__malloc_unlock>
   83604:	3408      	adds	r4, #8
   83606:	e6eb      	b.n	833e0 <_malloc_r+0x18c>
   83608:	687a      	ldr	r2, [r7, #4]
   8360a:	e688      	b.n	8331e <_malloc_r+0xca>
   8360c:	f108 0801 	add.w	r8, r8, #1
   83610:	f018 0f03 	tst.w	r8, #3
   83614:	f10c 0c08 	add.w	ip, ip, #8
   83618:	f47f ae93 	bne.w	83342 <_malloc_r+0xee>
   8361c:	e02d      	b.n	8367a <_malloc_r+0x426>
   8361e:	68dc      	ldr	r4, [r3, #12]
   83620:	42a3      	cmp	r3, r4
   83622:	bf08      	it	eq
   83624:	3002      	addeq	r0, #2
   83626:	f43f ae4b 	beq.w	832c0 <_malloc_r+0x6c>
   8362a:	e6c9      	b.n	833c0 <_malloc_r+0x16c>
   8362c:	461c      	mov	r4, r3
   8362e:	4419      	add	r1, r3
   83630:	684a      	ldr	r2, [r1, #4]
   83632:	68db      	ldr	r3, [r3, #12]
   83634:	f854 6f08 	ldr.w	r6, [r4, #8]!
   83638:	f042 0201 	orr.w	r2, r2, #1
   8363c:	604a      	str	r2, [r1, #4]
   8363e:	4628      	mov	r0, r5
   83640:	60f3      	str	r3, [r6, #12]
   83642:	609e      	str	r6, [r3, #8]
   83644:	f000 f8ae 	bl	837a4 <__malloc_unlock>
   83648:	e6ca      	b.n	833e0 <_malloc_r+0x18c>
   8364a:	f103 005c 	add.w	r0, r3, #92	; 0x5c
   8364e:	f103 0e5b 	add.w	lr, r3, #91	; 0x5b
   83652:	00c1      	lsls	r1, r0, #3
   83654:	e620      	b.n	83298 <_malloc_r+0x44>
   83656:	099a      	lsrs	r2, r3, #6
   83658:	f102 0139 	add.w	r1, r2, #57	; 0x39
   8365c:	00c9      	lsls	r1, r1, #3
   8365e:	3238      	adds	r2, #56	; 0x38
   83660:	e7a4      	b.n	835ac <_malloc_r+0x358>
   83662:	42bc      	cmp	r4, r7
   83664:	d054      	beq.n	83710 <_malloc_r+0x4bc>
   83666:	68bc      	ldr	r4, [r7, #8]
   83668:	6862      	ldr	r2, [r4, #4]
   8366a:	f022 0203 	bic.w	r2, r2, #3
   8366e:	e75e      	b.n	8352e <_malloc_r+0x2da>
   83670:	f859 3908 	ldr.w	r3, [r9], #-8
   83674:	4599      	cmp	r9, r3
   83676:	f040 8086 	bne.w	83786 <_malloc_r+0x532>
   8367a:	f010 0f03 	tst.w	r0, #3
   8367e:	f100 30ff 	add.w	r0, r0, #4294967295
   83682:	d1f5      	bne.n	83670 <_malloc_r+0x41c>
   83684:	687b      	ldr	r3, [r7, #4]
   83686:	ea23 0304 	bic.w	r3, r3, r4
   8368a:	607b      	str	r3, [r7, #4]
   8368c:	0064      	lsls	r4, r4, #1
   8368e:	429c      	cmp	r4, r3
   83690:	f63f aec8 	bhi.w	83424 <_malloc_r+0x1d0>
   83694:	2c00      	cmp	r4, #0
   83696:	f43f aec5 	beq.w	83424 <_malloc_r+0x1d0>
   8369a:	421c      	tst	r4, r3
   8369c:	4640      	mov	r0, r8
   8369e:	f47f ae4c 	bne.w	8333a <_malloc_r+0xe6>
   836a2:	0064      	lsls	r4, r4, #1
   836a4:	421c      	tst	r4, r3
   836a6:	f100 0004 	add.w	r0, r0, #4
   836aa:	d0fa      	beq.n	836a2 <_malloc_r+0x44e>
   836ac:	e645      	b.n	8333a <_malloc_r+0xe6>
   836ae:	468c      	mov	ip, r1
   836b0:	e78c      	b.n	835cc <_malloc_r+0x378>
   836b2:	f5b3 7faa 	cmp.w	r3, #340	; 0x154
   836b6:	d815      	bhi.n	836e4 <_malloc_r+0x490>
   836b8:	0bf3      	lsrs	r3, r6, #15
   836ba:	f103 0078 	add.w	r0, r3, #120	; 0x78
   836be:	f103 0e77 	add.w	lr, r3, #119	; 0x77
   836c2:	00c1      	lsls	r1, r0, #3
   836c4:	e5e8      	b.n	83298 <_malloc_r+0x44>
   836c6:	f44f 5180 	mov.w	r1, #4096	; 0x1000
   836ca:	e6ee      	b.n	834aa <_malloc_r+0x256>
   836cc:	2101      	movs	r1, #1
   836ce:	687b      	ldr	r3, [r7, #4]
   836d0:	1092      	asrs	r2, r2, #2
   836d2:	fa01 f202 	lsl.w	r2, r1, r2
   836d6:	431a      	orrs	r2, r3
   836d8:	607a      	str	r2, [r7, #4]
   836da:	4663      	mov	r3, ip
   836dc:	e779      	b.n	835d2 <_malloc_r+0x37e>
   836de:	2301      	movs	r3, #1
   836e0:	6053      	str	r3, [r2, #4]
   836e2:	e72a      	b.n	8353a <_malloc_r+0x2e6>
   836e4:	f240 5254 	movw	r2, #1364	; 0x554
   836e8:	4293      	cmp	r3, r2
   836ea:	d822      	bhi.n	83732 <_malloc_r+0x4de>
   836ec:	0cb3      	lsrs	r3, r6, #18
   836ee:	f103 007d 	add.w	r0, r3, #125	; 0x7d
   836f2:	f103 0e7c 	add.w	lr, r3, #124	; 0x7c
   836f6:	00c1      	lsls	r1, r0, #3
   836f8:	e5ce      	b.n	83298 <_malloc_r+0x44>
   836fa:	f103 0b10 	add.w	fp, r3, #16
   836fe:	e6af      	b.n	83460 <_malloc_r+0x20c>
   83700:	2a54      	cmp	r2, #84	; 0x54
   83702:	d829      	bhi.n	83758 <_malloc_r+0x504>
   83704:	0b1a      	lsrs	r2, r3, #12
   83706:	f102 016f 	add.w	r1, r2, #111	; 0x6f
   8370a:	00c9      	lsls	r1, r1, #3
   8370c:	326e      	adds	r2, #110	; 0x6e
   8370e:	e74d      	b.n	835ac <_malloc_r+0x358>
   83710:	4b20      	ldr	r3, [pc, #128]	; (83794 <_malloc_r+0x540>)
   83712:	6819      	ldr	r1, [r3, #0]
   83714:	4459      	add	r1, fp
   83716:	6019      	str	r1, [r3, #0]
   83718:	e6b3      	b.n	83482 <_malloc_r+0x22e>
   8371a:	f3ca 000b 	ubfx	r0, sl, #0, #12
   8371e:	2800      	cmp	r0, #0
   83720:	f47f aeaf 	bne.w	83482 <_malloc_r+0x22e>
   83724:	eb08 030b 	add.w	r3, r8, fp
   83728:	68ba      	ldr	r2, [r7, #8]
   8372a:	f043 0301 	orr.w	r3, r3, #1
   8372e:	6053      	str	r3, [r2, #4]
   83730:	e6ef      	b.n	83512 <_malloc_r+0x2be>
   83732:	207f      	movs	r0, #127	; 0x7f
   83734:	f44f 717e 	mov.w	r1, #1016	; 0x3f8
   83738:	f04f 0e7e 	mov.w	lr, #126	; 0x7e
   8373c:	e5ac      	b.n	83298 <_malloc_r+0x44>
   8373e:	f104 0108 	add.w	r1, r4, #8
   83742:	4628      	mov	r0, r5
   83744:	9300      	str	r3, [sp, #0]
   83746:	f7ff fc39 	bl	82fbc <_free_r>
   8374a:	9b00      	ldr	r3, [sp, #0]
   8374c:	6819      	ldr	r1, [r3, #0]
   8374e:	e6e0      	b.n	83512 <_malloc_r+0x2be>
   83750:	2001      	movs	r0, #1
   83752:	f04f 0900 	mov.w	r9, #0
   83756:	e6bd      	b.n	834d4 <_malloc_r+0x280>
   83758:	f5b2 7faa 	cmp.w	r2, #340	; 0x154
   8375c:	d805      	bhi.n	8376a <_malloc_r+0x516>
   8375e:	0bda      	lsrs	r2, r3, #15
   83760:	f102 0178 	add.w	r1, r2, #120	; 0x78
   83764:	00c9      	lsls	r1, r1, #3
   83766:	3277      	adds	r2, #119	; 0x77
   83768:	e720      	b.n	835ac <_malloc_r+0x358>
   8376a:	f240 5154 	movw	r1, #1364	; 0x554
   8376e:	428a      	cmp	r2, r1
   83770:	d805      	bhi.n	8377e <_malloc_r+0x52a>
   83772:	0c9a      	lsrs	r2, r3, #18
   83774:	f102 017d 	add.w	r1, r2, #125	; 0x7d
   83778:	00c9      	lsls	r1, r1, #3
   8377a:	327c      	adds	r2, #124	; 0x7c
   8377c:	e716      	b.n	835ac <_malloc_r+0x358>
   8377e:	f44f 717e 	mov.w	r1, #1016	; 0x3f8
   83782:	227e      	movs	r2, #126	; 0x7e
   83784:	e712      	b.n	835ac <_malloc_r+0x358>
   83786:	687b      	ldr	r3, [r7, #4]
   83788:	e780      	b.n	8368c <_malloc_r+0x438>
   8378a:	08f0      	lsrs	r0, r6, #3
   8378c:	f106 0308 	add.w	r3, r6, #8
   83790:	e60e      	b.n	833b0 <_malloc_r+0x15c>
   83792:	bf00      	nop
   83794:	2007c354 	.word	0x2007c354

00083798 <__malloc_lock>:
   83798:	4801      	ldr	r0, [pc, #4]	; (837a0 <__malloc_lock+0x8>)
   8379a:	f7ff bd21 	b.w	831e0 <__retarget_lock_acquire_recursive>
   8379e:	bf00      	nop
   837a0:	2007c3e8 	.word	0x2007c3e8

000837a4 <__malloc_unlock>:
   837a4:	4801      	ldr	r0, [pc, #4]	; (837ac <__malloc_unlock+0x8>)
   837a6:	f7ff bd1d 	b.w	831e4 <__retarget_lock_release_recursive>
   837aa:	bf00      	nop
   837ac:	2007c3e8 	.word	0x2007c3e8

000837b0 <_sbrk_r>:
   837b0:	b538      	push	{r3, r4, r5, lr}
   837b2:	2300      	movs	r3, #0
   837b4:	4c06      	ldr	r4, [pc, #24]	; (837d0 <_sbrk_r+0x20>)
   837b6:	4605      	mov	r5, r0
   837b8:	4608      	mov	r0, r1
   837ba:	6023      	str	r3, [r4, #0]
   837bc:	f7fe fffa 	bl	827b4 <_sbrk>
   837c0:	1c43      	adds	r3, r0, #1
   837c2:	d000      	beq.n	837c6 <_sbrk_r+0x16>
   837c4:	bd38      	pop	{r3, r4, r5, pc}
   837c6:	6823      	ldr	r3, [r4, #0]
   837c8:	2b00      	cmp	r3, #0
   837ca:	d0fb      	beq.n	837c4 <_sbrk_r+0x14>
   837cc:	602b      	str	r3, [r5, #0]
   837ce:	bd38      	pop	{r3, r4, r5, pc}
   837d0:	2007c3fc 	.word	0x2007c3fc

000837d4 <__sread>:
   837d4:	b510      	push	{r4, lr}
   837d6:	460c      	mov	r4, r1
   837d8:	f9b1 100e 	ldrsh.w	r1, [r1, #14]
   837dc:	f000 f954 	bl	83a88 <_read_r>
   837e0:	2800      	cmp	r0, #0
   837e2:	db03      	blt.n	837ec <__sread+0x18>
   837e4:	6d23      	ldr	r3, [r4, #80]	; 0x50
   837e6:	4403      	add	r3, r0
   837e8:	6523      	str	r3, [r4, #80]	; 0x50
   837ea:	bd10      	pop	{r4, pc}
   837ec:	89a3      	ldrh	r3, [r4, #12]
   837ee:	f423 5380 	bic.w	r3, r3, #4096	; 0x1000
   837f2:	81a3      	strh	r3, [r4, #12]
   837f4:	bd10      	pop	{r4, pc}
   837f6:	bf00      	nop

000837f8 <__swrite>:
   837f8:	e92d 41f0 	stmdb	sp!, {r4, r5, r6, r7, r8, lr}
   837fc:	460c      	mov	r4, r1
   837fe:	f9b1 100c 	ldrsh.w	r1, [r1, #12]
   83802:	461f      	mov	r7, r3
   83804:	05cb      	lsls	r3, r1, #23
   83806:	4616      	mov	r6, r2
   83808:	4605      	mov	r5, r0
   8380a:	d507      	bpl.n	8381c <__swrite+0x24>
   8380c:	f9b4 100e 	ldrsh.w	r1, [r4, #14]
   83810:	2302      	movs	r3, #2
   83812:	2200      	movs	r2, #0
   83814:	f000 f922 	bl	83a5c <_lseek_r>
   83818:	f9b4 100c 	ldrsh.w	r1, [r4, #12]
   8381c:	f421 5180 	bic.w	r1, r1, #4096	; 0x1000
   83820:	81a1      	strh	r1, [r4, #12]
   83822:	463b      	mov	r3, r7
   83824:	4632      	mov	r2, r6
   83826:	f9b4 100e 	ldrsh.w	r1, [r4, #14]
   8382a:	4628      	mov	r0, r5
   8382c:	e8bd 41f0 	ldmia.w	sp!, {r4, r5, r6, r7, r8, lr}
   83830:	f000 b814 	b.w	8385c <_write_r>

00083834 <__sseek>:
   83834:	b510      	push	{r4, lr}
   83836:	460c      	mov	r4, r1
   83838:	f9b1 100e 	ldrsh.w	r1, [r1, #14]
   8383c:	f000 f90e 	bl	83a5c <_lseek_r>
   83840:	89a3      	ldrh	r3, [r4, #12]
   83842:	1c42      	adds	r2, r0, #1
   83844:	bf0e      	itee	eq
   83846:	f423 5380 	biceq.w	r3, r3, #4096	; 0x1000
   8384a:	f443 5380 	orrne.w	r3, r3, #4096	; 0x1000
   8384e:	6520      	strne	r0, [r4, #80]	; 0x50
   83850:	81a3      	strh	r3, [r4, #12]
   83852:	bd10      	pop	{r4, pc}

00083854 <__sclose>:
   83854:	f9b1 100e 	ldrsh.w	r1, [r1, #14]
   83858:	f000 b878 	b.w	8394c <_close_r>

0008385c <_write_r>:
   8385c:	b5f8      	push	{r3, r4, r5, r6, r7, lr}
   8385e:	460e      	mov	r6, r1
   83860:	2500      	movs	r5, #0
   83862:	4c08      	ldr	r4, [pc, #32]	; (83884 <_write_r+0x28>)
   83864:	4611      	mov	r1, r2
   83866:	4607      	mov	r7, r0
   83868:	461a      	mov	r2, r3
   8386a:	4630      	mov	r0, r6
   8386c:	6025      	str	r5, [r4, #0]
   8386e:	f7fc fc95 	bl	8019c <_write>
   83872:	1c43      	adds	r3, r0, #1
   83874:	d000      	beq.n	83878 <_write_r+0x1c>
   83876:	bdf8      	pop	{r3, r4, r5, r6, r7, pc}
   83878:	6823      	ldr	r3, [r4, #0]
   8387a:	2b00      	cmp	r3, #0
   8387c:	d0fb      	beq.n	83876 <_write_r+0x1a>
   8387e:	603b      	str	r3, [r7, #0]
   83880:	bdf8      	pop	{r3, r4, r5, r6, r7, pc}
   83882:	bf00      	nop
   83884:	2007c3fc 	.word	0x2007c3fc

00083888 <__register_exitproc>:
   83888:	e92d 43f8 	stmdb	sp!, {r3, r4, r5, r6, r7, r8, r9, lr}
   8388c:	4d2c      	ldr	r5, [pc, #176]	; (83940 <__register_exitproc+0xb8>)
   8388e:	4606      	mov	r6, r0
   83890:	6828      	ldr	r0, [r5, #0]
   83892:	4698      	mov	r8, r3
   83894:	460f      	mov	r7, r1
   83896:	4691      	mov	r9, r2
   83898:	f7ff fca2 	bl	831e0 <__retarget_lock_acquire_recursive>
   8389c:	4b29      	ldr	r3, [pc, #164]	; (83944 <__register_exitproc+0xbc>)
   8389e:	681c      	ldr	r4, [r3, #0]
   838a0:	f8d4 3148 	ldr.w	r3, [r4, #328]	; 0x148
   838a4:	2b00      	cmp	r3, #0
   838a6:	d03e      	beq.n	83926 <__register_exitproc+0x9e>
   838a8:	685a      	ldr	r2, [r3, #4]
   838aa:	2a1f      	cmp	r2, #31
   838ac:	dc1c      	bgt.n	838e8 <__register_exitproc+0x60>
   838ae:	f102 0e01 	add.w	lr, r2, #1
   838b2:	b176      	cbz	r6, 838d2 <__register_exitproc+0x4a>
   838b4:	2101      	movs	r1, #1
   838b6:	eb03 0482 	add.w	r4, r3, r2, lsl #2
   838ba:	f8c4 9088 	str.w	r9, [r4, #136]	; 0x88
   838be:	f8d3 0188 	ldr.w	r0, [r3, #392]	; 0x188
   838c2:	4091      	lsls	r1, r2
   838c4:	4308      	orrs	r0, r1
   838c6:	2e02      	cmp	r6, #2
   838c8:	f8c3 0188 	str.w	r0, [r3, #392]	; 0x188
   838cc:	f8c4 8108 	str.w	r8, [r4, #264]	; 0x108
   838d0:	d023      	beq.n	8391a <__register_exitproc+0x92>
   838d2:	3202      	adds	r2, #2
   838d4:	f8c3 e004 	str.w	lr, [r3, #4]
   838d8:	6828      	ldr	r0, [r5, #0]
   838da:	f843 7022 	str.w	r7, [r3, r2, lsl #2]
   838de:	f7ff fc81 	bl	831e4 <__retarget_lock_release_recursive>
   838e2:	2000      	movs	r0, #0
   838e4:	e8bd 83f8 	ldmia.w	sp!, {r3, r4, r5, r6, r7, r8, r9, pc}
   838e8:	4b17      	ldr	r3, [pc, #92]	; (83948 <__register_exitproc+0xc0>)
   838ea:	b30b      	cbz	r3, 83930 <__register_exitproc+0xa8>
   838ec:	f44f 70c8 	mov.w	r0, #400	; 0x190
   838f0:	f7ff fca8 	bl	83244 <malloc>
   838f4:	4603      	mov	r3, r0
   838f6:	b1d8      	cbz	r0, 83930 <__register_exitproc+0xa8>
   838f8:	2000      	movs	r0, #0
   838fa:	f8d4 1148 	ldr.w	r1, [r4, #328]	; 0x148
   838fe:	f04f 0e01 	mov.w	lr, #1
   83902:	6058      	str	r0, [r3, #4]
   83904:	6019      	str	r1, [r3, #0]
   83906:	4602      	mov	r2, r0
   83908:	f8c4 3148 	str.w	r3, [r4, #328]	; 0x148
   8390c:	f8c3 0188 	str.w	r0, [r3, #392]	; 0x188
   83910:	f8c3 018c 	str.w	r0, [r3, #396]	; 0x18c
   83914:	2e00      	cmp	r6, #0
   83916:	d0dc      	beq.n	838d2 <__register_exitproc+0x4a>
   83918:	e7cc      	b.n	838b4 <__register_exitproc+0x2c>
   8391a:	f8d3 018c 	ldr.w	r0, [r3, #396]	; 0x18c
   8391e:	4301      	orrs	r1, r0
   83920:	f8c3 118c 	str.w	r1, [r3, #396]	; 0x18c
   83924:	e7d5      	b.n	838d2 <__register_exitproc+0x4a>
   83926:	f504 73a6 	add.w	r3, r4, #332	; 0x14c
   8392a:	f8c4 3148 	str.w	r3, [r4, #328]	; 0x148
   8392e:	e7bb      	b.n	838a8 <__register_exitproc+0x20>
   83930:	6828      	ldr	r0, [r5, #0]
   83932:	f7ff fc57 	bl	831e4 <__retarget_lock_release_recursive>
   83936:	f04f 30ff 	mov.w	r0, #4294967295
   8393a:	e8bd 83f8 	ldmia.w	sp!, {r3, r4, r5, r6, r7, r8, r9, pc}
   8393e:	bf00      	nop
   83940:	20070560 	.word	0x20070560
   83944:	00083b18 	.word	0x00083b18
   83948:	00083245 	.word	0x00083245

0008394c <_close_r>:
   8394c:	b538      	push	{r3, r4, r5, lr}
   8394e:	2300      	movs	r3, #0
   83950:	4c06      	ldr	r4, [pc, #24]	; (8396c <_close_r+0x20>)
   83952:	4605      	mov	r5, r0
   83954:	4608      	mov	r0, r1
   83956:	6023      	str	r3, [r4, #0]
   83958:	f7fe ff48 	bl	827ec <_close>
   8395c:	1c43      	adds	r3, r0, #1
   8395e:	d000      	beq.n	83962 <_close_r+0x16>
   83960:	bd38      	pop	{r3, r4, r5, pc}
   83962:	6823      	ldr	r3, [r4, #0]
   83964:	2b00      	cmp	r3, #0
   83966:	d0fb      	beq.n	83960 <_close_r+0x14>
   83968:	602b      	str	r3, [r5, #0]
   8396a:	bd38      	pop	{r3, r4, r5, pc}
   8396c:	2007c3fc 	.word	0x2007c3fc

00083970 <_fclose_r>:
   83970:	b570      	push	{r4, r5, r6, lr}
   83972:	b159      	cbz	r1, 8398c <_fclose_r+0x1c>
   83974:	4605      	mov	r5, r0
   83976:	460c      	mov	r4, r1
   83978:	b110      	cbz	r0, 83980 <_fclose_r+0x10>
   8397a:	6b83      	ldr	r3, [r0, #56]	; 0x38
   8397c:	2b00      	cmp	r3, #0
   8397e:	d03c      	beq.n	839fa <_fclose_r+0x8a>
   83980:	6e63      	ldr	r3, [r4, #100]	; 0x64
   83982:	07d8      	lsls	r0, r3, #31
   83984:	d505      	bpl.n	83992 <_fclose_r+0x22>
   83986:	f9b4 300c 	ldrsh.w	r3, [r4, #12]
   8398a:	b92b      	cbnz	r3, 83998 <_fclose_r+0x28>
   8398c:	2600      	movs	r6, #0
   8398e:	4630      	mov	r0, r6
   83990:	bd70      	pop	{r4, r5, r6, pc}
   83992:	89a3      	ldrh	r3, [r4, #12]
   83994:	0599      	lsls	r1, r3, #22
   83996:	d53c      	bpl.n	83a12 <_fclose_r+0xa2>
   83998:	4621      	mov	r1, r4
   8399a:	4628      	mov	r0, r5
   8399c:	f7ff f974 	bl	82c88 <__sflush_r>
   839a0:	6ae3      	ldr	r3, [r4, #44]	; 0x2c
   839a2:	4606      	mov	r6, r0
   839a4:	b133      	cbz	r3, 839b4 <_fclose_r+0x44>
   839a6:	69e1      	ldr	r1, [r4, #28]
   839a8:	4628      	mov	r0, r5
   839aa:	4798      	blx	r3
   839ac:	2800      	cmp	r0, #0
   839ae:	bfb8      	it	lt
   839b0:	f04f 36ff 	movlt.w	r6, #4294967295
   839b4:	89a3      	ldrh	r3, [r4, #12]
   839b6:	061a      	lsls	r2, r3, #24
   839b8:	d422      	bmi.n	83a00 <_fclose_r+0x90>
   839ba:	6b21      	ldr	r1, [r4, #48]	; 0x30
   839bc:	b141      	cbz	r1, 839d0 <_fclose_r+0x60>
   839be:	f104 0340 	add.w	r3, r4, #64	; 0x40
   839c2:	4299      	cmp	r1, r3
   839c4:	d002      	beq.n	839cc <_fclose_r+0x5c>
   839c6:	4628      	mov	r0, r5
   839c8:	f7ff faf8 	bl	82fbc <_free_r>
   839cc:	2300      	movs	r3, #0
   839ce:	6323      	str	r3, [r4, #48]	; 0x30
   839d0:	6c61      	ldr	r1, [r4, #68]	; 0x44
   839d2:	b121      	cbz	r1, 839de <_fclose_r+0x6e>
   839d4:	4628      	mov	r0, r5
   839d6:	f7ff faf1 	bl	82fbc <_free_r>
   839da:	2300      	movs	r3, #0
   839dc:	6463      	str	r3, [r4, #68]	; 0x44
   839de:	f7ff fa77 	bl	82ed0 <__sfp_lock_acquire>
   839e2:	2200      	movs	r2, #0
   839e4:	6e63      	ldr	r3, [r4, #100]	; 0x64
   839e6:	81a2      	strh	r2, [r4, #12]
   839e8:	07db      	lsls	r3, r3, #31
   839ea:	d50e      	bpl.n	83a0a <_fclose_r+0x9a>
   839ec:	6da0      	ldr	r0, [r4, #88]	; 0x58
   839ee:	f7ff fbf5 	bl	831dc <__retarget_lock_close_recursive>
   839f2:	f7ff fa73 	bl	82edc <__sfp_lock_release>
   839f6:	4630      	mov	r0, r6
   839f8:	bd70      	pop	{r4, r5, r6, pc}
   839fa:	f7ff fa39 	bl	82e70 <__sinit>
   839fe:	e7bf      	b.n	83980 <_fclose_r+0x10>
   83a00:	6921      	ldr	r1, [r4, #16]
   83a02:	4628      	mov	r0, r5
   83a04:	f7ff fada 	bl	82fbc <_free_r>
   83a08:	e7d7      	b.n	839ba <_fclose_r+0x4a>
   83a0a:	6da0      	ldr	r0, [r4, #88]	; 0x58
   83a0c:	f7ff fbea 	bl	831e4 <__retarget_lock_release_recursive>
   83a10:	e7ec      	b.n	839ec <_fclose_r+0x7c>
   83a12:	6da0      	ldr	r0, [r4, #88]	; 0x58
   83a14:	f7ff fbe4 	bl	831e0 <__retarget_lock_acquire_recursive>
   83a18:	f9b4 300c 	ldrsh.w	r3, [r4, #12]
   83a1c:	2b00      	cmp	r3, #0
   83a1e:	d1bb      	bne.n	83998 <_fclose_r+0x28>
   83a20:	6e66      	ldr	r6, [r4, #100]	; 0x64
   83a22:	f016 0601 	ands.w	r6, r6, #1
   83a26:	d1b1      	bne.n	8398c <_fclose_r+0x1c>
   83a28:	6da0      	ldr	r0, [r4, #88]	; 0x58
   83a2a:	f7ff fbdb 	bl	831e4 <__retarget_lock_release_recursive>
   83a2e:	4630      	mov	r0, r6
   83a30:	bd70      	pop	{r4, r5, r6, pc}
   83a32:	bf00      	nop

00083a34 <_fstat_r>:
   83a34:	b570      	push	{r4, r5, r6, lr}
   83a36:	460d      	mov	r5, r1
   83a38:	2300      	movs	r3, #0
   83a3a:	4c07      	ldr	r4, [pc, #28]	; (83a58 <_fstat_r+0x24>)
   83a3c:	4606      	mov	r6, r0
   83a3e:	4611      	mov	r1, r2
   83a40:	4628      	mov	r0, r5
   83a42:	6023      	str	r3, [r4, #0]
   83a44:	f7fe fed5 	bl	827f2 <_fstat>
   83a48:	1c43      	adds	r3, r0, #1
   83a4a:	d000      	beq.n	83a4e <_fstat_r+0x1a>
   83a4c:	bd70      	pop	{r4, r5, r6, pc}
   83a4e:	6823      	ldr	r3, [r4, #0]
   83a50:	2b00      	cmp	r3, #0
   83a52:	d0fb      	beq.n	83a4c <_fstat_r+0x18>
   83a54:	6033      	str	r3, [r6, #0]
   83a56:	bd70      	pop	{r4, r5, r6, pc}
   83a58:	2007c3fc 	.word	0x2007c3fc

00083a5c <_lseek_r>:
   83a5c:	b5f8      	push	{r3, r4, r5, r6, r7, lr}
   83a5e:	460e      	mov	r6, r1
   83a60:	2500      	movs	r5, #0
   83a62:	4c08      	ldr	r4, [pc, #32]	; (83a84 <_lseek_r+0x28>)
   83a64:	4611      	mov	r1, r2
   83a66:	4607      	mov	r7, r0
   83a68:	461a      	mov	r2, r3
   83a6a:	4630      	mov	r0, r6
   83a6c:	6025      	str	r5, [r4, #0]
   83a6e:	f7fe fec5 	bl	827fc <_lseek>
   83a72:	1c43      	adds	r3, r0, #1
   83a74:	d000      	beq.n	83a78 <_lseek_r+0x1c>
   83a76:	bdf8      	pop	{r3, r4, r5, r6, r7, pc}
   83a78:	6823      	ldr	r3, [r4, #0]
   83a7a:	2b00      	cmp	r3, #0
   83a7c:	d0fb      	beq.n	83a76 <_lseek_r+0x1a>
   83a7e:	603b      	str	r3, [r7, #0]
   83a80:	bdf8      	pop	{r3, r4, r5, r6, r7, pc}
   83a82:	bf00      	nop
   83a84:	2007c3fc 	.word	0x2007c3fc

00083a88 <_read_r>:
   83a88:	b5f8      	push	{r3, r4, r5, r6, r7, lr}
   83a8a:	460e      	mov	r6, r1
   83a8c:	2500      	movs	r5, #0
   83a8e:	4c08      	ldr	r4, [pc, #32]	; (83ab0 <_read_r+0x28>)
   83a90:	4611      	mov	r1, r2
   83a92:	4607      	mov	r7, r0
   83a94:	461a      	mov	r2, r3
   83a96:	4630      	mov	r0, r6
   83a98:	6025      	str	r5, [r4, #0]
   83a9a:	f7fc fb61 	bl	80160 <_read>
   83a9e:	1c43      	adds	r3, r0, #1
   83aa0:	d000      	beq.n	83aa4 <_read_r+0x1c>
   83aa2:	bdf8      	pop	{r3, r4, r5, r6, r7, pc}
   83aa4:	6823      	ldr	r3, [r4, #0]
   83aa6:	2b00      	cmp	r3, #0
   83aa8:	d0fb      	beq.n	83aa2 <_read_r+0x1a>
   83aaa:	603b      	str	r3, [r7, #0]
   83aac:	bdf8      	pop	{r3, r4, r5, r6, r7, pc}
   83aae:	bf00      	nop
   83ab0:	2007c3fc 	.word	0x2007c3fc
   83ab4:	454c4449 	.word	0x454c4449
   83ab8:	00000000 	.word	0x00000000
   83abc:	51726d54 	.word	0x51726d54
   83ac0:	00000000 	.word	0x00000000
   83ac4:	20726d54 	.word	0x20726d54
   83ac8:	00637653 	.word	0x00637653
   83acc:	7373654d 	.word	0x7373654d
   83ad0:	20656761 	.word	0x20656761
   83ad4:	72702031 	.word	0x72702031
   83ad8:	20746e69 	.word	0x20746e69
   83adc:	6b736174 	.word	0x6b736174
   83ae0:	00000000 	.word	0x00000000
   83ae4:	20646156 	.word	0x20646156
   83ae8:	20617262 	.word	0x20617262
   83aec:	00000000 	.word	0x00000000
   83af0:	7373654d 	.word	0x7373654d
   83af4:	20656761 	.word	0x20656761
   83af8:	72702032 	.word	0x72702032
   83afc:	20746e69 	.word	0x20746e69
   83b00:	6b736174 	.word	0x6b736174
   83b04:	00000000 	.word	0x00000000
   83b08:	6b63794d 	.word	0x6b63794d
   83b0c:	6b207465 	.word	0x6b207465
   83b10:	65666661 	.word	0x65666661
   83b14:	00000020 	.word	0x00000020

00083b18 <_global_impure_ptr>:
   83b18:	20070138                                8.. 

00083b1c <_init>:
   83b1c:	b5f8      	push	{r3, r4, r5, r6, r7, lr}
   83b1e:	bf00      	nop
   83b20:	bcf8      	pop	{r3, r4, r5, r6, r7}
   83b22:	bc08      	pop	{r3}
   83b24:	469e      	mov	lr, r3
   83b26:	4770      	bx	lr

00083b28 <__init_array_start>:
   83b28:	00082c69 	.word	0x00082c69

00083b2c <__frame_dummy_init_array_entry>:
   83b2c:	00080119                                ....

00083b30 <_fini>:
   83b30:	b5f8      	push	{r3, r4, r5, r6, r7, lr}
   83b32:	bf00      	nop
   83b34:	bcf8      	pop	{r3, r4, r5, r6, r7}
   83b36:	bc08      	pop	{r3}
   83b38:	469e      	mov	lr, r3
   83b3a:	4770      	bx	lr

00083b3c <__fini_array_start>:
   83b3c:	000800f5 	.word	0x000800f5

Disassembly of section .relocate:

20070000 <SystemInit>:
20070000:	f44f 6380 	mov.w	r3, #1024	; 0x400
20070004:	4a20      	ldr	r2, [pc, #128]	; (20070088 <SystemInit+0x88>)
20070006:	6013      	str	r3, [r2, #0]
20070008:	f502 7200 	add.w	r2, r2, #512	; 0x200
2007000c:	6013      	str	r3, [r2, #0]
2007000e:	4b1f      	ldr	r3, [pc, #124]	; (2007008c <SystemInit+0x8c>)
20070010:	6a1b      	ldr	r3, [r3, #32]
20070012:	f013 7f80 	tst.w	r3, #16777216	; 0x1000000
20070016:	d107      	bne.n	20070028 <SystemInit+0x28>
20070018:	4a1d      	ldr	r2, [pc, #116]	; (20070090 <SystemInit+0x90>)
2007001a:	4b1c      	ldr	r3, [pc, #112]	; (2007008c <SystemInit+0x8c>)
2007001c:	621a      	str	r2, [r3, #32]
2007001e:	461a      	mov	r2, r3
20070020:	6e93      	ldr	r3, [r2, #104]	; 0x68
20070022:	f013 0f01 	tst.w	r3, #1
20070026:	d0fb      	beq.n	20070020 <SystemInit+0x20>
20070028:	4a1a      	ldr	r2, [pc, #104]	; (20070094 <SystemInit+0x94>)
2007002a:	4b18      	ldr	r3, [pc, #96]	; (2007008c <SystemInit+0x8c>)
2007002c:	621a      	str	r2, [r3, #32]
2007002e:	461a      	mov	r2, r3
20070030:	6e93      	ldr	r3, [r2, #104]	; 0x68
20070032:	f413 3f80 	tst.w	r3, #65536	; 0x10000
20070036:	d0fb      	beq.n	20070030 <SystemInit+0x30>
20070038:	4a14      	ldr	r2, [pc, #80]	; (2007008c <SystemInit+0x8c>)
2007003a:	6b13      	ldr	r3, [r2, #48]	; 0x30
2007003c:	f023 0303 	bic.w	r3, r3, #3
20070040:	f043 0301 	orr.w	r3, r3, #1
20070044:	6313      	str	r3, [r2, #48]	; 0x30
20070046:	6e93      	ldr	r3, [r2, #104]	; 0x68
20070048:	f013 0f08 	tst.w	r3, #8
2007004c:	d0fb      	beq.n	20070046 <SystemInit+0x46>
2007004e:	4a12      	ldr	r2, [pc, #72]	; (20070098 <SystemInit+0x98>)
20070050:	4b0e      	ldr	r3, [pc, #56]	; (2007008c <SystemInit+0x8c>)
20070052:	629a      	str	r2, [r3, #40]	; 0x28
20070054:	461a      	mov	r2, r3
20070056:	6e93      	ldr	r3, [r2, #104]	; 0x68
20070058:	f013 0f02 	tst.w	r3, #2
2007005c:	d0fb      	beq.n	20070056 <SystemInit+0x56>
2007005e:	2211      	movs	r2, #17
20070060:	4b0a      	ldr	r3, [pc, #40]	; (2007008c <SystemInit+0x8c>)
20070062:	631a      	str	r2, [r3, #48]	; 0x30
20070064:	461a      	mov	r2, r3
20070066:	6e93      	ldr	r3, [r2, #104]	; 0x68
20070068:	f013 0f08 	tst.w	r3, #8
2007006c:	d0fb      	beq.n	20070066 <SystemInit+0x66>
2007006e:	2212      	movs	r2, #18
20070070:	4b06      	ldr	r3, [pc, #24]	; (2007008c <SystemInit+0x8c>)
20070072:	631a      	str	r2, [r3, #48]	; 0x30
20070074:	461a      	mov	r2, r3
20070076:	6e93      	ldr	r3, [r2, #104]	; 0x68
20070078:	f013 0f08 	tst.w	r3, #8
2007007c:	d0fb      	beq.n	20070076 <SystemInit+0x76>
2007007e:	4a07      	ldr	r2, [pc, #28]	; (2007009c <SystemInit+0x9c>)
20070080:	4b07      	ldr	r3, [pc, #28]	; (200700a0 <SystemInit+0xa0>)
20070082:	601a      	str	r2, [r3, #0]
20070084:	4770      	bx	lr
20070086:	bf00      	nop
20070088:	400e0a00 	.word	0x400e0a00
2007008c:	400e0600 	.word	0x400e0600
20070090:	00370809 	.word	0x00370809
20070094:	01370809 	.word	0x01370809
20070098:	200d3f01 	.word	0x200d3f01
2007009c:	0501bd00 	.word	0x0501bd00
200700a0:	20070130 	.word	0x20070130

200700a4 <system_init_flash>:
200700a4:	4b1b      	ldr	r3, [pc, #108]	; (20070114 <system_init_flash+0x70>)
200700a6:	4298      	cmp	r0, r3
200700a8:	d915      	bls.n	200700d6 <system_init_flash+0x32>
200700aa:	4b1b      	ldr	r3, [pc, #108]	; (20070118 <system_init_flash+0x74>)
200700ac:	4298      	cmp	r0, r3
200700ae:	d919      	bls.n	200700e4 <system_init_flash+0x40>
200700b0:	4b1a      	ldr	r3, [pc, #104]	; (2007011c <system_init_flash+0x78>)
200700b2:	4298      	cmp	r0, r3
200700b4:	d91e      	bls.n	200700f4 <system_init_flash+0x50>
200700b6:	4b1a      	ldr	r3, [pc, #104]	; (20070120 <system_init_flash+0x7c>)
200700b8:	4298      	cmp	r0, r3
200700ba:	d923      	bls.n	20070104 <system_init_flash+0x60>
200700bc:	4b19      	ldr	r3, [pc, #100]	; (20070124 <system_init_flash+0x80>)
200700be:	4298      	cmp	r0, r3
200700c0:	bf94      	ite	ls
200700c2:	f44f 6380 	movls.w	r3, #1024	; 0x400
200700c6:	f44f 63a0 	movhi.w	r3, #1280	; 0x500
200700ca:	4a17      	ldr	r2, [pc, #92]	; (20070128 <system_init_flash+0x84>)
200700cc:	6013      	str	r3, [r2, #0]
200700ce:	f502 7200 	add.w	r2, r2, #512	; 0x200
200700d2:	6013      	str	r3, [r2, #0]
200700d4:	4770      	bx	lr
200700d6:	2300      	movs	r3, #0
200700d8:	4a13      	ldr	r2, [pc, #76]	; (20070128 <system_init_flash+0x84>)
200700da:	6013      	str	r3, [r2, #0]
200700dc:	f502 7200 	add.w	r2, r2, #512	; 0x200
200700e0:	6013      	str	r3, [r2, #0]
200700e2:	4770      	bx	lr
200700e4:	f44f 7380 	mov.w	r3, #256	; 0x100
200700e8:	4a0f      	ldr	r2, [pc, #60]	; (20070128 <system_init_flash+0x84>)
200700ea:	6013      	str	r3, [r2, #0]
200700ec:	f502 7200 	add.w	r2, r2, #512	; 0x200
200700f0:	6013      	str	r3, [r2, #0]
200700f2:	4770      	bx	lr
200700f4:	f44f 7300 	mov.w	r3, #512	; 0x200
200700f8:	4a0b      	ldr	r2, [pc, #44]	; (20070128 <system_init_flash+0x84>)
200700fa:	6013      	str	r3, [r2, #0]
200700fc:	f502 7200 	add.w	r2, r2, #512	; 0x200
20070100:	6013      	str	r3, [r2, #0]
20070102:	4770      	bx	lr
20070104:	f44f 7340 	mov.w	r3, #768	; 0x300
20070108:	4a07      	ldr	r2, [pc, #28]	; (20070128 <system_init_flash+0x84>)
2007010a:	6013      	str	r3, [r2, #0]
2007010c:	f502 7200 	add.w	r2, r2, #512	; 0x200
20070110:	6013      	str	r3, [r2, #0]
20070112:	4770      	bx	lr
20070114:	0121eabf 	.word	0x0121eabf
20070118:	02faf07f 	.word	0x02faf07f
2007011c:	03d08fff 	.word	0x03d08fff
20070120:	04c4b3ff 	.word	0x04c4b3ff
20070124:	055d4a7f 	.word	0x055d4a7f
20070128:	400e0a00 	.word	0x400e0a00

2007012c <uxCriticalNesting>:
2007012c:	aaaaaaaa                                ....

20070130 <SystemCoreClock>:
20070130:	003d0900                                ..=.

20070134 <_impure_ptr>:
20070134:	20070138                                8.. 

20070138 <impure_data>:
20070138:	00000000 20070424 2007048c 200704f4     ....$.. ... ... 
	...
200701e0:	00000001 00000000 abcd330e e66d1234     .........3..4.m.
200701f0:	0005deec 0000000b 00000000 00000000     ................
	...

20070560 <__atexit_recursive_mutex>:
20070560:	2007c3d8                                ... 

20070564 <__malloc_av_>:
	...
2007056c:	20070564 20070564 2007056c 2007056c     d.. d.. l.. l.. 
2007057c:	20070574 20070574 2007057c 2007057c     t.. t.. |.. |.. 
2007058c:	20070584 20070584 2007058c 2007058c     ... ... ... ... 
2007059c:	20070594 20070594 2007059c 2007059c     ... ... ... ... 
200705ac:	200705a4 200705a4 200705ac 200705ac     ... ... ... ... 
200705bc:	200705b4 200705b4 200705bc 200705bc     ... ... ... ... 
200705cc:	200705c4 200705c4 200705cc 200705cc     ... ... ... ... 
200705dc:	200705d4 200705d4 200705dc 200705dc     ... ... ... ... 
200705ec:	200705e4 200705e4 200705ec 200705ec     ... ... ... ... 
200705fc:	200705f4 200705f4 200705fc 200705fc     ... ... ... ... 
2007060c:	20070604 20070604 2007060c 2007060c     ... ... ... ... 
2007061c:	20070614 20070614 2007061c 2007061c     ... ... ... ... 
2007062c:	20070624 20070624 2007062c 2007062c     $.. $.. ,.. ,.. 
2007063c:	20070634 20070634 2007063c 2007063c     4.. 4.. <.. <.. 
2007064c:	20070644 20070644 2007064c 2007064c     D.. D.. L.. L.. 
2007065c:	20070654 20070654 2007065c 2007065c     T.. T.. \.. \.. 
2007066c:	20070664 20070664 2007066c 2007066c     d.. d.. l.. l.. 
2007067c:	20070674 20070674 2007067c 2007067c     t.. t.. |.. |.. 
2007068c:	20070684 20070684 2007068c 2007068c     ... ... ... ... 
2007069c:	20070694 20070694 2007069c 2007069c     ... ... ... ... 
200706ac:	200706a4 200706a4 200706ac 200706ac     ... ... ... ... 
200706bc:	200706b4 200706b4 200706bc 200706bc     ... ... ... ... 
200706cc:	200706c4 200706c4 200706cc 200706cc     ... ... ... ... 
200706dc:	200706d4 200706d4 200706dc 200706dc     ... ... ... ... 
200706ec:	200706e4 200706e4 200706ec 200706ec     ... ... ... ... 
200706fc:	200706f4 200706f4 200706fc 200706fc     ... ... ... ... 
2007070c:	20070704 20070704 2007070c 2007070c     ... ... ... ... 
2007071c:	20070714 20070714 2007071c 2007071c     ... ... ... ... 
2007072c:	20070724 20070724 2007072c 2007072c     $.. $.. ,.. ,.. 
2007073c:	20070734 20070734 2007073c 2007073c     4.. 4.. <.. <.. 
2007074c:	20070744 20070744 2007074c 2007074c     D.. D.. L.. L.. 
2007075c:	20070754 20070754 2007075c 2007075c     T.. T.. \.. \.. 
2007076c:	20070764 20070764 2007076c 2007076c     d.. d.. l.. l.. 
2007077c:	20070774 20070774 2007077c 2007077c     t.. t.. |.. |.. 
2007078c:	20070784 20070784 2007078c 2007078c     ... ... ... ... 
2007079c:	20070794 20070794 2007079c 2007079c     ... ... ... ... 
200707ac:	200707a4 200707a4 200707ac 200707ac     ... ... ... ... 
200707bc:	200707b4 200707b4 200707bc 200707bc     ... ... ... ... 
200707cc:	200707c4 200707c4 200707cc 200707cc     ... ... ... ... 
200707dc:	200707d4 200707d4 200707dc 200707dc     ... ... ... ... 
200707ec:	200707e4 200707e4 200707ec 200707ec     ... ... ... ... 
200707fc:	200707f4 200707f4 200707fc 200707fc     ... ... ... ... 
2007080c:	20070804 20070804 2007080c 2007080c     ... ... ... ... 
2007081c:	20070814 20070814 2007081c 2007081c     ... ... ... ... 
2007082c:	20070824 20070824 2007082c 2007082c     $.. $.. ,.. ,.. 
2007083c:	20070834 20070834 2007083c 2007083c     4.. 4.. <.. <.. 
2007084c:	20070844 20070844 2007084c 2007084c     D.. D.. L.. L.. 
2007085c:	20070854 20070854 2007085c 2007085c     T.. T.. \.. \.. 
2007086c:	20070864 20070864 2007086c 2007086c     d.. d.. l.. l.. 
2007087c:	20070874 20070874 2007087c 2007087c     t.. t.. |.. |.. 
2007088c:	20070884 20070884 2007088c 2007088c     ... ... ... ... 
2007089c:	20070894 20070894 2007089c 2007089c     ... ... ... ... 
200708ac:	200708a4 200708a4 200708ac 200708ac     ... ... ... ... 
200708bc:	200708b4 200708b4 200708bc 200708bc     ... ... ... ... 
200708cc:	200708c4 200708c4 200708cc 200708cc     ... ... ... ... 
200708dc:	200708d4 200708d4 200708dc 200708dc     ... ... ... ... 
200708ec:	200708e4 200708e4 200708ec 200708ec     ... ... ... ... 
200708fc:	200708f4 200708f4 200708fc 200708fc     ... ... ... ... 
2007090c:	20070904 20070904 2007090c 2007090c     ... ... ... ... 
2007091c:	20070914 20070914 2007091c 2007091c     ... ... ... ... 
2007092c:	20070924 20070924 2007092c 2007092c     $.. $.. ,.. ,.. 
2007093c:	20070934 20070934 2007093c 2007093c     4.. 4.. <.. <.. 
2007094c:	20070944 20070944 2007094c 2007094c     D.. D.. L.. L.. 
2007095c:	20070954 20070954 2007095c 2007095c     T.. T.. \.. \.. 

2007096c <__malloc_sbrk_base>:
2007096c:	ffffffff                                ....

20070970 <__malloc_trim_threshold>:
20070970:	00020000                                ....
